RASU8(ML610112)Relocatable Assembler, Ver.1.61.2    assemble list. page:   1 
 Source File: _output\_obj\main.asm
 Object File: _output\_obj\main.obj
 Date  : 2015/06/08 Mon.[16:19]
 Title : 
## Loc. Object                   Line   Source Statements

                                    1   ;; Compile Options : /TML610112 /MS /near /Icommon /Imain /Iirq /Itimer /Iclock /Itbc /Iuart /Ii2c /SS 256 /SD /Oa /Ot /W 3 /Wc /Fa_output\_obj\ 
                                    2   ;; Version Number  : Ver.3.41.8
                                    3   ;; File Name       : main.c
                                    4   
                                    5   	type (ML610112) 
                                    6   	model small, near
                                    7   	$$NVARmain segment data 2h #0h
                                    8   	$$NINITVAR segment data 2h #0h
                                    9   	$$NINITTAB segment table 2h any
                                   10   	$$NTABmain segment table 2h #0h
                                   11   	$$ADC_Read$main segment code 2h #0h
                                   12   	$$DeviceSelection$main segment code 2h #0h
                                   13   	$$FlashLEDs$main segment code 2h #0h
                                   14   	$$I2C_Read$main segment code 2h #0h
                                   15   	$$I2C_Write$main segment code 2h #0h
                                   16   	$$Init_ALS_PROX_Sensor_11$main segment code 2h #0h
                                   17   	$$Init_Ambient_Light_Sensor_5$main segment code 2h #0h
                                   18   	$$Init_Ambient_Light_Sensor_6$main segment code 2h #0h
                                   19   	$$Init_Ambient_Light_Sensor_7$main segment code 2h #0h
                                   20   	$$Init_Ambient_Light_Sensor_8$main segment code 2h #0h
                                   21   	$$Init_Ambient_Light_Sensor_9$main segment code 2h #0h
                                   22   	$$Init_Color_Sensor_4$main segment code 2h #0h
                                   23   	$$Init_Hall_Effect_Sensors_1$main segment code 2h #0h
                                   24   	$$Init_Hall_Effect_Sensors_2$main segment code 2h #0h
                                   25   	$$Init_KMX61$main segment code 2h #0h
                                   26   	$$Init_KX022$main segment code 2h #0h
                                   27   	$$Init_KXG03_Sensor_12$main segment code 2h #0h
                                   28   	$$Init_Pressure_Sensor_3$main segment code 2h #0h
                                   29   	$$Init_Temperature_Sensor_20$main segment code 2h #0h
                                   30   	$$Init_Temperature_Sensor_21$main segment code 2h #0h
                                   31   	$$Init_Temperature_Sensor_22$main segment code 2h #0h
                                   32   	$$Init_Temperature_Sensor_23$main segment code 2h #0h
                                   33   	$$Init_UV_Sensor_10$main segment code 2h #0h
                                   34   	$$Initialization$main segment code 2h #0h
                                   35   	$$MainOp_ALS_PROX_Sensor_11$main segment code 2h #0h
                                   36   	$$MainOp_Ambient_Light_Sensor_5$main segment code 2h #0h
                                   37   	$$MainOp_Ambient_Light_Sensor_6$main segment code 2h #0h
                                   38   	$$MainOp_Ambient_Light_Sensor_7$main segment code 2h #0h
                                   39   	$$MainOp_Ambient_Light_Sensor_8$main segment code 2h #0h
                                   40   	$$MainOp_Ambient_Light_Sensor_9$main segment code 2h #0h
                                   41   	$$MainOp_Color_Sensor_4$main segment code 2h #0h
                                   42   	$$MainOp_Hall_Effect_Sensors_1$main segment code 2h #0h
                                   43   	$$MainOp_Hall_Effect_Sensors_2$main segment code 2h #0h
                                   44   	$$MainOp_KMX61$main segment code 2h #0h
                                   45   	$$MainOp_KX022$main segment code 2h #0h
                                   46   	$$MainOp_KXG03_Sensor_12$main segment code 2h #0h
                                   47   	$$MainOp_Pressure_Sensor_3$main segment code 2h #0h
                                   48   	$$MainOp_Temperature_Sensor_20$main segment code 2h #0h
                                   49   	$$MainOp_Temperature_Sensor_21$main segment code 2h #0h
                                   50   	$$MainOp_Temperature_Sensor_22$main segment code 2h #0h
                                   51   	$$MainOp_Temperature_Sensor_23$main segment code 2h #0h
                                   52   	$$MainOp_UV_Sensor_10$main segment code 2h #0h
                                   53   	$$NOPms$main segment code 2h #0h
                                   54   	$$PortA_Low$main segment code 2h #0h
                                   55   	$$PortB_Low$main segment code 2h #0h
                                   56   	$$PortC_Low$main segment code 2h #0h
                                   57   	$$PortD_Low$main segment code 2h #0h
                                   58   	$$ReverseBits$main segment code 2h #0h
                                   59   	$$SensorInitialization$main segment code 2h #0h
                                   60   	$$SetOSC$main segment code 2h #0h
                                   61   	$$TAB$$S134$main segment table 2h #0h
                                   62   	$$TAB$$S143$main segment table 2h #0h
                                   63   	$$TAB$$S152$main segment table 2h #0h
                                   64   	$$TAB$$S154$main segment table 2h #0h
                                   65   	$$TAB$$S158$main segment table 2h #0h
                                   66   	$$TAB$$S160$main segment table 2h #0h
                                   67   	$$TAB$$S165$main segment table 2h #0h
                                   68   	$$TAB$$S167$main segment table 2h #0h
                                   69   	$$TAB$$S178$main segment table 2h #0h
                                   70   	$$TAB$$S180$main segment table 2h #0h
                                   71   	$$TAB$$S194$main segment table 2h #0h
                                   72   	$$TAB$$S196$main segment table 2h #0h
                                   73   	$$TAB$$S198$main segment table 2h #0h
                                   74   	$$TAB$$S200$main segment table 2h #0h
                                   75   	$$TAB$$S202$main segment table 2h #0h
                                   76   	$$TAB$$S204$main segment table 2h #0h
                                   77   	$$TAB$$S205$main segment table 2h #0h
                                   78   	$$TAB$$S207$main segment table 2h #0h
                                   79   	$$TAB$$S220$main segment table 2h #0h
                                   80   	$$TAB$$S270$main segment table 2h #0h
                                   81   	$$TAB$$S272$main segment table 2h #0h
                                   82   	$$TAB$$S274$main segment table 2h #0h
                                   83   	$$TAB$$S277$main segment table 2h #0h
                                   84   	$$TAB$$S279$main segment table 2h #0h
                                   85   	$$TAB$$S281$main segment table 2h #0h
                                   86   	$$TAB$$S283$main segment table 2h #0h
                                   87   	$$TAB$$S286$main segment table 2h #0h
                                   88   	$$TAB$$S288$main segment table 2h #0h
                                   89   	$$TAB$$S30$main segment table 2h #0h
                                   90   	$$TAB$$S58$main segment table 2h #0h
                                   91   	$$TAB$$S59$main segment table 2h #0h
                                   92   	$$TABBH1710FVC_CONT_H_RES_MOD$main segment table 2h #0h
                                   93   	$$TABBH1710FVC_CONT_L_RES_MOD$main segment table 2h #0h
                                   94   	$$TABBH1710FVC_CONT_M_RES_MOD$main segment table 2h #0h
                                   95   	$$TABBH1710FVC_ONET_H_RES_MOD$main segment table 2h #0h
                                   96   	$$TABBH1710FVC_ONET_L_RES_MOD$main segment table 2h #0h
                                   97   	$$TABBH1710FVC_ONET_M_RES_MOD$main segment table 2h #0h
                                   98   	$$TABBH1710FVC_RESET$main segment table 2h #0h
                                   99   	$$TABBH1721FVC_CONT_A_RES_MOD$main segment table 2h #0h
                                  100   	$$TABBH1721FVC_CONT_H_RES_MOD$main segment table 2h #0h
                                  101   	$$TABBH1721FVC_CONT_L_RES_MOD$main segment table 2h #0h
                                  102   	$$TABBH1730FVC_CMD_RESET_INT_OUT$main segment table 2h #0h
                                  103   	$$TABBH1730FVC_CMD_START_MIM$main segment table 2h #0h
                                  104   	$$TABBH1730FVC_CMD_STOP_MIM$main segment table 2h #0h
                                  105   	$$TABBH1730FVC_CMD_SW_RESET$main segment table 2h #0h
                                  106   	$$TABBH1730FVC_REG_CONTROL$main segment table 2h #0h
                                  107   	$$TABBH1730FVC_REG_DATA0HIGH$main segment table 2h #0h
                                  108   	$$TABBH1730FVC_REG_DATA0LOW$main segment table 2h #0h
                                  109   	$$TABBH1730FVC_REG_DATA1HIGH$main segment table 2h #0h
                                  110   	$$TABBH1730FVC_REG_DATA1LOW$main segment table 2h #0h
                                  111   	$$TABBH1730FVC_REG_GAIN$main segment table 2h #0h
                                  112   	$$TABBH1730FVC_REG_ID$main segment table 2h #0h
                                  113   	$$TABBH1730FVC_REG_INTERRUPT$main segment table 2h #0h
                                  114   	$$TABBH1730FVC_REG_THHHIGH$main segment table 2h #0h
                                  115   	$$TABBH1730FVC_REG_THHLOW$main segment table 2h #0h
                                  116   	$$TABBH1730FVC_REG_THLHIGH$main segment table 2h #0h
                                  117   	$$TABBH1730FVC_REG_THLLOW$main segment table 2h #0h
                                  118   	$$TABBH1730FVC_REG_TIMING$main segment table 2h #0h
                                  119   	$$TABBH1745_BLUE_DATA_LSBs$main segment table 2h #0h
                                  120   	$$TABBH1745_BLUE_DATA_MSBs$main segment table 2h #0h
                                  121   	$$TABBH1745_GREEN_DATA_LSBs$main segment table 2h #0h
                                  122   	$$TABBH1745_GREEN_DATA_MSBs$main segment table 2h #0h
                                  123   	$$TABBH1745_I2C_ADDR$main segment table 2h #0h
                                  124   	$$TABBH1745_INTERRUPT$main segment table 2h #0h
                                  125   	$$TABBH1745_MANUFACTURER_ID$main segment table 2h #0h
                                  126   	$$TABBH1745_MODE_CONTROL1$main segment table 2h #0h
                                  127   	$$TABBH1745_MODE_CONTROL2$main segment table 2h #0h
                                  128   	$$TABBH1745_MODE_CONTROL3$main segment table 2h #0h
                                  129   	$$TABBH1745_PERSISTENCE$main segment table 2h #0h
                                  130   	$$TABBH1745_RED_DATA_LSBs$main segment table 2h #0h
                                  131   	$$TABBH1745_RED_DATA_MSBs$main segment table 2h #0h
                                  132   	$$TABBH1745_SYSTEM_CONTROL$main segment table 2h #0h
                                  133   	$$TABBH1780GLI_REG_CONTROL$main segment table 2h #0h
                                  134   	$$TABBH1780GLI_REG_DATAHIGH$main segment table 2h #0h
                                  135   	$$TABBH1780GLI_REG_DATALOW$main segment table 2h #0h
                                  136   	$$TABBH1780GLI_REG_MFG_ID$main segment table 2h #0h
                                  137   	$$TABBH1780GLI_REG_PART_ID$main segment table 2h #0h
                                  138   	$$TABBH17xxFVC_ADDR_1$main segment table 2h #0h
                                  139   	$$TABBH17xxFVC_ADDR_2$main segment table 2h #0h
                                  140   	$$TABBH17xxFVC_PWR_DOWN$main segment table 2h #0h
                                  141   	$$TABBH17xxFVC_PWR_ON$main segment table 2h #0h
                                  142   	$$TABBM1383GLV_I2C_ADDR$main segment table 2h #0h
                                  143   	$$TABBM1383GLV_ID$main segment table 2h #0h
                                  144   	$$TABBM1383GLV_MODE_CONTROL$main segment table 2h #0h
                                  145   	$$TABBM1383GLV_MODE_CONTROL_AVGN$main segment table 2h #0h
                                  146   	$$TABBM1383GLV_MODE_CONTROL_MODE$main segment table 2h #0h
                                  147   	$$TABBM1383GLV_MODE_CONTROL_REG$main segment table 2h #0h
                                  148   	$$TABBM1383GLV_POWER_DOWN$main segment table 2h #0h
                                  149   	$$TABBM1383GLV_POWER_OFF$main segment table 2h #0h
                                  150   	$$TABBM1383GLV_POWER_ON$main segment table 2h #0h
                                  151   	$$TABBM1383GLV_PRESSURE_LSB$main segment table 2h #0h
                                  152   	$$TABBM1383GLV_PRESSURE_MSB$main segment table 2h #0h
                                  153   	$$TABBM1383GLV_RESET_CONTROL$main segment table 2h #0h
                                  154   	$$TABBM1383GLV_SLEEP$main segment table 2h #0h
                                  155   	$$TABBM1383GLV_SLEEP_ACT$main segment table 2h #0h
                                  156   	$$TABBM1383GLV_SLEEP_SLP$main segment table 2h #0h
                                  157   	$$TABBM1383GLV_TEMPERATURE_LSB$main segment table 2h #0h
                                  158   	$$TABBM1383GLV_TEMPERATURE_MSB$main segment table 2h #0h
                                  159   	$$TABKMX61_ACCEL_XOUT_H$main segment table 2h #0h
                                  160   	$$TABKMX61_ACCEL_XOUT_L$main segment table 2h #0h
                                  161   	$$TABKMX61_ACCEL_YOUT_H$main segment table 2h #0h
                                  162   	$$TABKMX61_ACCEL_YOUT_L$main segment table 2h #0h
                                  163   	$$TABKMX61_ACCEL_ZOUT_H$main segment table 2h #0h
                                  164   	$$TABKMX61_ACCEL_ZOUT_L$main segment table 2h #0h
                                  165   	$$TABKMX61_BTH$main segment table 2h #0h
                                  166   	$$TABKMX61_BTSC$main segment table 2h #0h
                                  167   	$$TABKMX61_BUF_CLEAR$main segment table 2h #0h
                                  168   	$$TABKMX61_BUF_CTRL1$main segment table 2h #0h
                                  169   	$$TABKMX61_BUF_CTRL1_CFGDAT$main segment table 2h #0h
                                  170   	$$TABKMX61_BUF_CTRL2$main segment table 2h #0h
                                  171   	$$TABKMX61_BUF_CTRL2_CFGDAT$main segment table 2h #0h
                                  172   	$$TABKMX61_BUF_READ$main segment table 2h #0h
                                  173   	$$TABKMX61_BUF_STATUS_H$main segment table 2h #0h
                                  174   	$$TABKMX61_BUF_STATUS_L$main segment table 2h #0h
                                  175   	$$TABKMX61_BUF_STATUS_REG$main segment table 2h #0h
                                  176   	$$TABKMX61_BUF_THRESH_H$main segment table 2h #0h
                                  177   	$$TABKMX61_BUF_THRESH_L$main segment table 2h #0h
                                  178   	$$TABKMX61_CNTL1$main segment table 2h #0h
                                  179   	$$TABKMX61_CNTL1_CFGDAT$main segment table 2h #0h
                                  180   	$$TABKMX61_CNTL2$main segment table 2h #0h
                                  181   	$$TABKMX61_CNTL2_CFGDAT$main segment table 2h #0h
                                  182   	$$TABKMX61_COTR$main segment table 2h #0h
                                  183   	$$TABKMX61_I2C_ADDR$main segment table 2h #0h
                                  184   	$$TABKMX61_INC1$main segment table 2h #0h
                                  185   	$$TABKMX61_INC2$main segment table 2h #0h
                                  186   	$$TABKMX61_INC3$main segment table 2h #0h
                                  187   	$$TABKMX61_INL$main segment table 2h #0h
                                  188   	$$TABKMX61_INS1$main segment table 2h #0h
                                  189   	$$TABKMX61_INS2$main segment table 2h #0h
                                  190   	$$TABKMX61_MAG_XOUT_H$main segment table 2h #0h
                                  191   	$$TABKMX61_MAG_XOUT_L$main segment table 2h #0h
                                  192   	$$TABKMX61_MAG_YOUT_H$main segment table 2h #0h
                                  193   	$$TABKMX61_MAG_YOUT_L$main segment table 2h #0h
                                  194   	$$TABKMX61_MAG_ZOUT_H$main segment table 2h #0h
                                  195   	$$TABKMX61_MAG_ZOUT_L$main segment table 2h #0h
                                  196   	$$TABKMX61_ODCNTL$main segment table 2h #0h
                                  197   	$$TABKMX61_ODCNTL_CFGDAT$main segment table 2h #0h
                                  198   	$$TABKMX61_SELF_TEST$main segment table 2h #0h
                                  199   	$$TABKMX61_SELF_TEST_CFGDAT$main segment table 2h #0h
                                  200   	$$TABKMX61_SN_1$main segment table 2h #0h
                                  201   	$$TABKMX61_SN_2$main segment table 2h #0h
                                  202   	$$TABKMX61_SN_3$main segment table 2h #0h
                                  203   	$$TABKMX61_SN_4$main segment table 2h #0h
                                  204   	$$TABKMX61_STATUS_REG$main segment table 2h #0h
                                  205   	$$TABKMX61_STBY_REG$main segment table 2h #0h
                                  206   	$$TABKMX61_TEMP_EN_CNTL$main segment table 2h #0h
                                  207   	$$TABKMX61_TEMP_EN_CNTL_CFGDAT$main segment table 2h #0h
                                  208   	$$TABKMX61_TEMP_OUT_H$main segment table 2h #0h
                                  209   	$$TABKMX61_TEMP_OUT_L$main segment table 2h #0h
                                  210   	$$TABKMX61_WHO_AM_I$main segment table 2h #0h
                                  211   	$$TABKMX61_WUFC$main segment table 2h #0h
                                  212   	$$TABKMX61_WUFTH$main segment table 2h #0h
                                  213   	$$TABKMX61_XOUT_HPF_H$main segment table 2h #0h
                                  214   	$$TABKMX61_XOUT_HPF_L$main segment table 2h #0h
                                  215   	$$TABKMX61_YOUT_HPF_H$main segment table 2h #0h
                                  216   	$$TABKMX61_YOUT_HPF_L$main segment table 2h #0h
                                  217   	$$TABKMX61_ZOUT_HPF_H$main segment table 2h #0h
                                  218   	$$TABKMX61_ZOUT_HPF_L$main segment table 2h #0h
                                  219   	$$TABKMX62_CNTL2$main segment table 2h #0h
                                  220   	$$TABKMX62_CNTL2_CFG$main segment table 2h #0h
                                  221   	$$TABKMX62_MAG_XOUT_L$main segment table 2h #0h
                                  222   	$$TABKX022_ATH$main segment table 2h #0h
                                  223   	$$TABKX022_BUF_CLEAR$main segment table 2h #0h
                                  224   	$$TABKX022_BUF_CNTL1$main segment table 2h #0h
                                  225   	$$TABKX022_BUF_CNTL2$main segment table 2h #0h
                                  226   	$$TABKX022_BUF_READ$main segment table 2h #0h
                                  227   	$$TABKX022_BUF_STATUS_1$main segment table 2h #0h
                                  228   	$$TABKX022_BUF_STATUS_2$main segment table 2h #0h
                                  229   	$$TABKX022_CNTL1$main segment table 2h #0h
                                  230   	$$TABKX022_CNTL1_CFGDAT$main segment table 2h #0h
                                  231   	$$TABKX022_CNTL2$main segment table 2h #0h
                                  232   	$$TABKX022_CNTL3$main segment table 2h #0h
                                  233   	$$TABKX022_CNTL3_CFGDAT$main segment table 2h #0h
                                  234   	$$TABKX022_COTR$main segment table 2h #0h
                                  235   	$$TABKX022_FTD$main segment table 2h #0h
                                  236   	$$TABKX022_HYST_SET$main segment table 2h #0h
                                  237   	$$TABKX022_I2C_ADDR$main segment table 2h #0h
                                  238   	$$TABKX022_INC1$main segment table 2h #0h
                                  239   	$$TABKX022_INC2$main segment table 2h #0h
                                  240   	$$TABKX022_INC3$main segment table 2h #0h
                                  241   	$$TABKX022_INC4$main segment table 2h #0h
                                  242   	$$TABKX022_INC5$main segment table 2h #0h
                                  243   	$$TABKX022_INC6$main segment table 2h #0h
                                  244   	$$TABKX022_INS1$main segment table 2h #0h
                                  245   	$$TABKX022_INS2$main segment table 2h #0h
                                  246   	$$TABKX022_INS3$main segment table 2h #0h
                                  247   	$$TABKX022_INT_REL$main segment table 2h #0h
                                  248   	$$TABKX022_LP_CNTL$main segment table 2h #0h
                                  249   	$$TABKX022_ODCNTL$main segment table 2h #0h
                                  250   	$$TABKX022_ODCNTL_CFGDAT$main segment table 2h #0h
                                  251   	$$TABKX022_SELF_TEST$main segment table 2h #0h
                                  252   	$$TABKX022_STAT$main segment table 2h #0h
                                  253   	$$TABKX022_STD$main segment table 2h #0h
                                  254   	$$TABKX022_TDTC$main segment table 2h #0h
                                  255   	$$TABKX022_TDTRC$main segment table 2h #0h
                                  256   	$$TABKX022_TILT_ANGLE_HL$main segment table 2h #0h
                                  257   	$$TABKX022_TILT_ANGLE_LL$main segment table 2h #0h
                                  258   	$$TABKX022_TILT_TIMER$main segment table 2h #0h
                                  259   	$$TABKX022_TILT_TIMER_CFGDAT$main segment table 2h #0h
                                  260   	$$TABKX022_TLT$main segment table 2h #0h
                                  261   	$$TABKX022_TSCP$main segment table 2h #0h
                                  262   	$$TABKX022_TSPP$main segment table 2h #0h
                                  263   	$$TABKX022_TTH$main segment table 2h #0h
                                  264   	$$TABKX022_TTL$main segment table 2h #0h
                                  265   	$$TABKX022_TWS$main segment table 2h #0h
                                  266   	$$TABKX022_WHO_AM_I$main segment table 2h #0h
                                  267   	$$TABKX022_WUFC$main segment table 2h #0h
                                  268   	$$TABKX022_XHPH$main segment table 2h #0h
                                  269   	$$TABKX022_XHPL$main segment table 2h #0h
                                  270   	$$TABKX022_XOUTH$main segment table 2h #0h
                                  271   	$$TABKX022_XOUTL$main segment table 2h #0h
                                  272   	$$TABKX022_YHPH$main segment table 2h #0h
                                  273   	$$TABKX022_YHPL$main segment table 2h #0h
                                  274   	$$TABKX022_YOUTH$main segment table 2h #0h
                                  275   	$$TABKX022_YOUTL$main segment table 2h #0h
                                  276   	$$TABKX022_ZHPH$main segment table 2h #0h
                                  277   	$$TABKX022_ZHPL$main segment table 2h #0h
                                  278   	$$TABKX022_ZOUTH$main segment table 2h #0h
                                  279   	$$TABKX022_ZOUTL$main segment table 2h #0h
                                  280   	$$TABKXG03_ACC_XOUT_H$main segment table 2h #0h
                                  281   	$$TABKXG03_ACC_XOUT_L$main segment table 2h #0h
                                  282   	$$TABKXG03_ACC_YOUT_H$main segment table 2h #0h
                                  283   	$$TABKXG03_ACC_YOUT_L$main segment table 2h #0h
                                  284   	$$TABKXG03_ACC_ZOUT_H$main segment table 2h #0h
                                  285   	$$TABKXG03_ACC_ZOUT_L$main segment table 2h #0h
                                  286   	$$TABKXG03_CTRL_REG1$main segment table 2h #0h
                                  287   	$$TABKXG03_CTRL_REG1_CFDAT$main segment table 2h #0h
                                  288   	$$TABKXG03_CTRL_REG2$main segment table 2h #0h
                                  289   	$$TABKXG03_CTRL_REG2_CFDAT$main segment table 2h #0h
                                  290   	$$TABKXG03_GYRO_XOUT_H$main segment table 2h #0h
                                  291   	$$TABKXG03_GYRO_XOUT_L$main segment table 2h #0h
                                  292   	$$TABKXG03_GYRO_YOUT_H$main segment table 2h #0h
                                  293   	$$TABKXG03_GYRO_YOUT_L$main segment table 2h #0h
                                  294   	$$TABKXG03_GYRO_ZOUT_H$main segment table 2h #0h
                                  295   	$$TABKXG03_GYRO_ZOUT_L$main segment table 2h #0h
                                  296   	$$TABKXG03_I2C_ADDR$main segment table 2h #0h
                                  297   	$$TABKXG03_ODCTRL$main segment table 2h #0h
                                  298   	$$TABKXG03_ODCTRL_CFDAT$main segment table 2h #0h
                                  299   	$$TABKXG03_STBY_REG$main segment table 2h #0h
                                  300   	$$TABKXG03_STBY_SET$main segment table 2h #0h
                                  301   	$$TABRPR0521_ALS0_LSB$main segment table 2h #0h
                                  302   	$$TABRPR0521_ALS0_MSB$main segment table 2h #0h
                                  303   	$$TABRPR0521_ALS1_LSB$main segment table 2h #0h
                                  304   	$$TABRPR0521_ALS1_MSB$main segment table 2h #0h
                                  305   	$$TABRPR0521_ALS_ModeCTR$main segment table 2h #0h
                                  306   	$$TABRPR0521_ALS_ModeCTR_CFG$main segment table 2h #0h
                                  307   	$$TABRPR0521_I2C_ADDR$main segment table 2h #0h
                                  308   	$$TABRPR0521_Manufact_ID$main segment table 2h #0h
                                  309   	$$TABRPR0521_PS_ModeCTR$main segment table 2h #0h
                                  310   	$$TABRPR0521_PS_ModeCTR_CFG$main segment table 2h #0h
                                  311   	$$TABRPR0521_Prox_ModeCTR$main segment table 2h #0h
                                  312   	$$TABRPR0521_Prox_ModeCTR_CFG$main segment table 2h #0h
                                  313   	$$TABRPR0521_Prox_PS_LSB$main segment table 2h #0h
                                  314   	$$TABRPR0521_Prox_PS_MSB$main segment table 2h #0h
                                  315   	$$TAB_uartSetParam$main segment table 2h #0h
                                  316   	$$_funcI2CFin$main segment code 2h #0h
                                  317   	$$_funcUartFin$main segment code 2h #0h
                                  318   	$$_intADC$main segment code 2h #0h
                                  319   	$$_intI2c$main segment code 2h #0h
                                  320   	$$_intUart$main segment code 2h #0h
                                  321   	$$main$main segment code 2h #0h
                                  322   	$$main_clrWDT$main segment code 2h #0h
                                  323   	$$main_reqNotHalt$main segment code 2h #0h
                                  324   	$$write$main segment code 2h #0h
                                  325   	$$NTABmain$main segment table 2h #0h
                                  326   	$$NTABADC_Read$main segment table 2h #0h
                                  327   	$$NTABSensorInitialization$main segment table 2h #0h
                                  328   	STACKSEG 0100h
                                  329   CVERSION 3.41.8
                                  330   CGLOBAL 01H 03H 0000H "Init_Hall_Effect_Sensors_1" 08H 02H 0DBH 00H 80H 00H 00H 00H 07H
                                  331   CGLOBAL 01H 03H 0000H "Init_Hall_Effect_Sensors_2" 08H 02H 0DCH 00H 80H 00H 00H 00H 07H
                                  332   CGLOBAL 01H 03H 0000H "Init_KXG03_Sensor_12" 08H 02H 0E6H 00H 81H 08H 00H 00H 07H
                                  333   CGLOBAL 01H 03H 0000H "MainOp_Hall_Effect_Sensors_1" 08H 02H 0C9H 00H 81H 0aH 00H 00H 07H
                                  334   CGLOBAL 01H 03H 0000H "MainOp_Hall_Effect_Sensors_2" 08H 02H 0CAH 00H 81H 06H 00H 00H 07H
                                  335   CGLOBAL 01H 03H 0000H "NOPms" 08H 02H 0C4H 00H 81H 0aH 00H 00H 07H
                                  336   CGLOBAL 01H 03H 0000H "MainOp_Temperature_Sensor_20" 08H 02H 0D7H 00H 81H 14H 00H 00H 07H
                                  337   CGLOBAL 01H 03H 0000H "MainOp_Temperature_Sensor_21" 08H 02H 0D8H 00H 81H 14H 00H 00H 07H
                                  338   CGLOBAL 01H 03H 0000H "MainOp_Temperature_Sensor_22" 08H 02H 0D9H 00H 81H 0cH 00H 00H 07H
                                  339   CGLOBAL 01H 03H 0000H "MainOp_Temperature_Sensor_23" 08H 02H 0DAH 00H 81H 14H 00H 00H 07H
                                  340   CGLOBAL 01H 03H 0000H "main_clrWDT" 08H 02H 0B3H 00H 80H 00H 00H 00H 07H
                                  341   CSGLOBAL 03H 0000H "_funcUartFin" 08H 02H 0BEH 00H 81H 02H 00H 00H 07H
                                  342   CGLOBAL 01H 03H 0000H "main_reqNotHalt" 08H 02H 0C0H 00H 80H 00H 00H 00H 07H
                                  343   CGLOBAL 01H 03H 0000H "MainOp_UV_Sensor_10" 08H 02H 0D2H 00H 81H 14H 00H 00H 07H
                                  344   CGLOBAL 01H 03H 0000H "Init_Color_Sensor_4" 08H 02H 0DEH 00H 81H 08H 00H 00H 07H
                                  345   CGLOBAL 01H 03H 0000H "DeviceSelection" 08H 02H 0C7H 00H 80H 00H 00H 00H 07H
                                  346   CGLOBAL 01H 03H 0000H "Init_KX022" 08H 02H 0E7H 00H 81H 08H 00H 00H 07H
                                  347   CSGLOBAL 03H 0000H "Initialization" 08H 02H 0B4H 00H 81H 04H 00H 00H 07H
                                  348   CGLOBAL 01H 03H 0000H "MainOp_KMX61" 08H 02H 0D6H 00H 81H 22H 00H 00H 07H
                                  349   CGLOBAL 01H 03H 0000H "Init_Pressure_Sensor_3" 08H 02H 0DDH 00H 81H 08H 00H 00H 07H
                                  350   CGLOBAL 01H 03H 0000H "Init_Temperature_Sensor_20" 08H 02H 0E9H 00H 80H 00H 00H 00H 07H
                                  351   CGLOBAL 01H 03H 0000H "Init_Temperature_Sensor_21" 08H 02H 0EAH 00H 80H 00H 00H 00H 07H
                                  352   CGLOBAL 01H 03H 0000H "Init_Temperature_Sensor_22" 08H 02H 0EBH 00H 80H 00H 00H 00H 07H
                                  353   CGLOBAL 01H 03H 0000H "main" 08H 02H 0EDH 00H 80H 06H 00H 00H 01H
                                  354   CGLOBAL 01H 03H 0000H "Init_Temperature_Sensor_23" 08H 02H 0ECH 00H 80H 00H 00H 00H 07H
                                  355   CGLOBAL 01H 03H 0000H "Init_UV_Sensor_10" 08H 02H 0E4H 00H 80H 00H 00H 00H 07H
                                  356   CSGLOBAL 03H 0000H "_intUart" 08H 02H 0C1H 00H 80H 00H 00H 00H 07H
                                  357   CGLOBAL 01H 03H 0000H "SensorInitialization" 08H 02H 0C8H 00H 81H 02H 00H 00H 07H
                                  358   CGLOBAL 01H 03H 0000H "I2C_Write" 08H 02H 0BDH 00H 83H 10H 00H 00H 07H
                                  359   CGLOBAL 01H 03H 0000H "MainOp_KXG03_Sensor_12" 08H 02H 0D4H 00H 81H 22H 00H 00H 07H
                                  360   CGLOBAL 01H 03H 0000H "PortD_Low" 08H 02H 0B9H 00H 80H 00H 00H 00H 07H
                                  361   CSGLOBAL 03H 0000H "_intI2c" 08H 02H 0C2H 00H 81H 02H 00H 00H 07H
                                  362   CGLOBAL 01H 03H 0000H "write" 08H 02H 0BAH 00H 83H 08H 00H 00H 01H
                                  363   CSGLOBAL 03H 0000H "SetOSC" 08H 02H 0B5H 00H 80H 00H 00H 00H 07H
                                  364   CGLOBAL 01H 03H 0000H "PortC_Low" 08H 02H 0B8H 00H 80H 00H 00H 00H 07H
                                  365   CSGLOBAL 03H 0000H "_intADC" 08H 02H 0C3H 00H 80H 00H 00H 00H 07H
                                  366   CGLOBAL 01H 03H 0000H "Init_ALS_PROX_Sensor_11" 08H 02H 0E5H 00H 81H 08H 00H 00H 07H
                                  367   CGLOBAL 01H 03H 0000H "PortB_Low" 08H 02H 0B7H 00H 80H 00H 00H 00H 07H
                                  368   CGLOBAL 01H 03H 0000H "MainOp_ALS_PROX_Sensor_11" 08H 02H 0D3H 00H 81H 0eH 00H 00H 07H
                                  369   CGLOBAL 01H 03H 0000H "I2C_Read" 08H 02H 0BCH 00H 83H 10H 00H 00H 07H
                                  370   CGLOBAL 01H 03H 0000H "ADC_Read" 08H 02H 0BBH 00H 81H 04H 00H 00H 01H
                                  371   CGLOBAL 01H 03H 0000H "MainOp_KX022" 08H 02H 0D5H 00H 81H 22H 00H 00H 07H
                                  372   CGLOBAL 01H 03H 0000H "Init_Ambient_Light_Sensor_5" 08H 02H 0DFH 00H 80H 00H 00H 00H 07H
                                  373   CGLOBAL 01H 03H 0000H "Init_Ambient_Light_Sensor_6" 08H 02H 0E0H 00H 81H 08H 00H 00H 07H
                                  374   CGLOBAL 01H 03H 0000H "Init_Ambient_Light_Sensor_7" 08H 02H 0E1H 00H 83H 0cH 00H 00H 07H
                                  375   CGLOBAL 01H 03H 0000H "Init_Ambient_Light_Sensor_8" 08H 02H 0E2H 00H 81H 08H 00H 00H 07H
                                  376   CGLOBAL 01H 03H 0000H "Init_Ambient_Light_Sensor_9" 08H 02H 0E3H 00H 81H 08H 00H 00H 07H
                                  377   CGLOBAL 01H 03H 0000H "PortA_Low" 08H 02H 0B6H 00H 80H 00H 00H 00H 07H
                                  378   CGLOBAL 01H 03H 0000H "MainOp_Color_Sensor_4" 08H 02H 0CCH 00H 81H 12H 00H 00H 07H
                                  379   CGLOBAL 01H 02H 0000H "ReverseBits" 08H 02H 0C5H 00H 80H 00H 00H 00H 00H
                                  380   CSGLOBAL 03H 0000H "_funcI2CFin" 08H 02H 0BFH 00H 81H 02H 00H 00H 07H
                                  381   CGLOBAL 01H 02H 0000H "FlashLEDs" 08H 02H 0C6H 00H 80H 00H 00H 00H 00H
                                  382   CGLOBAL 01H 03H 0000H "Init_KMX61" 08H 02H 0E8H 00H 81H 08H 00H 00H 07H
                                  383   CGLOBAL 01H 03H 0000H "MainOp_Pressure_Sensor_3" 08H 02H 0CBH 00H 83H 26H 00H 00H 07H
                                  384   CGLOBAL 01H 03H 0000H "MainOp_Ambient_Light_Sensor_8" 08H 02H 0D0H 00H 81H 0aH 00H 00H 07H
                                  385   CGLOBAL 01H 03H 0000H "MainOp_Ambient_Light_Sensor_9" 08H 02H 0D1H 00H 81H 08H 00H 00H 07H
                                  386   CGLOBAL 01H 03H 0000H "MainOp_Ambient_Light_Sensor_5" 08H 02H 0CDH 00H 81H 0aH 00H 00H 07H
                                  387   CGLOBAL 01H 03H 0000H "MainOp_Ambient_Light_Sensor_6" 08H 02H 0CEH 00H 81H 0aH 00H 00H 07H
                                  388   CGLOBAL 01H 03H 0000H "MainOp_Ambient_Light_Sensor_7" 08H 02H 0CFH 00H 81H 0eH 00H 00H 07H
                                  389   CSTRUCTTAG 0000H 0000H 0005H 000CH 00000016H "_Notag"
                                  390   CSTRUCTMEM 42H 00000002H 00000000H "_Mode" 02H 00H 08H
                                  391   CSTRUCTMEM 43H 00000002H 00000002H "_Handle" 02H 00H 08H
                                  392   CSTRUCTMEM 42H 00000002H 00000004H "_Buf" 04H 03H 00H 00H 00H
                                  393   CSTRUCTMEM 42H 00000002H 00000006H "_Bend" 04H 03H 00H 00H 00H
                                  394   CSTRUCTMEM 42H 00000002H 00000008H "_Next" 04H 03H 00H 00H 00H
                                  395   CSTRUCTMEM 42H 00000002H 0000000AH "_Rend" 04H 03H 00H 00H 00H
                                  396   CSTRUCTMEM 42H 00000002H 0000000CH "_Rsave" 04H 03H 00H 00H 00H
                                  397   CSTRUCTMEM 42H 00000002H 0000000EH "_Wend" 04H 03H 00H 00H 00H
                                  398   CSTRUCTMEM 42H 00000002H 00000010H "_Back" 05H 01H 02H 00H 00H 00H
                                  399   CSTRUCTMEM 42H 00000001H 00000012H "_Cbuf" 02H 00H 00H
                                  400   CSTRUCTMEM 42H 00000001H 00000013H "_Nback" 02H 00H 00H
                                  401   CSTRUCTMEM 43H 00000002H 00000014H "_Tmpnam" 04H 03H 00H 00H 00H
                                  402   CSTRUCTTAG 0000H 0000H 0004H 0001H 00000004H "_Notag"
                                  403   CSTRUCTMEM 42H 00000004H 00000000H "_Off" 02H 00H 02H
                                  404   CSTRUCTTAG 0000H 0000H 0003H 0006H 0000000AH "_Notag"
                                  405   CSTRUCTMEM 42H 00000004H 00000000H "br" 02H 00H 02H
                                  406   CSTRUCTMEM 42H 00000001H 00000004H "lg" 02H 00H 00H
                                  407   CSTRUCTMEM 42H 00000001H 00000005H "pt" 02H 00H 00H
                                  408   CSTRUCTMEM 42H 00000001H 00000006H "stp" 02H 00H 00H
                                  409   CSTRUCTMEM 42H 00000001H 00000007H "neg" 02H 00H 00H
                                  410   CSTRUCTMEM 42H 00000001H 00000008H "dir" 02H 00H 00H
                                  411   CSTRUCTTAG 0000H 0000H 0002H 0002H 00000008H "_Notag"
                                  412   CSTRUCTMEM 43H 00000004H 00000000H "quot" 02H 00H 02H
                                  413   CSTRUCTMEM 43H 00000004H 00000004H "rem" 02H 00H 02H
                                  414   CSTRUCTTAG 0000H 0000H 0001H 0002H 00000004H "_Notag"
                                  415   CSTRUCTMEM 43H 00000002H 00000000H "quot" 02H 00H 01H
                                  416   CSTRUCTMEM 43H 00000002H 00000002H "rem" 02H 00H 01H
                                  417   CSTRUCTTAG 0000H 0000H 0000H 0008H 00000001H "_Notag"
                                  418   CSTRUCTMEM 52H 00000001H 00000000H "b0" 02H 00H 00H
                                  419   CSTRUCTMEM 52H 00000001H 00000001H "b1" 02H 00H 00H
                                  420   CSTRUCTMEM 52H 00000001H 00000002H "b2" 02H 00H 00H
                                  421   CSTRUCTMEM 52H 00000001H 00000003H "b3" 02H 00H 00H
                                  422   CSTRUCTMEM 52H 00000001H 00000004H "b4" 02H 00H 00H
                                  423   CSTRUCTMEM 52H 00000001H 00000005H "b5" 02H 00H 00H
                                  424   CSTRUCTMEM 52H 00000001H 00000006H "b6" 02H 00H 00H
                                  425   CSTRUCTMEM 52H 00000001H 00000007H "b7" 02H 00H 00H
                                  426   CUNIONTAG 0000H 0000H 0006H 0006H 00000006H "_Notag"
                                  427   CUNIONMEM 42H 00000001H "_uchar" 02H 00H 00H
                                  428   CUNIONMEM 42H 00000006H "_ucharArr" 05H 01H 06H 00H 00H 00H
                                  429   CUNIONMEM 42H 00000002H "_uint" 02H 00H 01H
                                  430   CUNIONMEM 42H 00000006H "_uintArr" 05H 01H 03H 00H 00H 01H
                                  431   CUNIONMEM 43H 00000006H "_intArr" 05H 01H 03H 00H 00H 01H
                                  432   CUNIONMEM 43H 00000004H "_float" 02H 00H 03H
                                  433   CTYPEDEF 0000H 0000H 43H "_Ptrdifft" 02H 00H 01H
                                  434   CTYPEDEF 0000H 0000H 42H "_Sizet" 02H 00H 01H
                                  435   CTYPEDEF 0000H 0000H 43H "tUartSetParam" 04H 00H 05H 03H 00H
                                  436   CTYPEDEF 0000H 0000H 42H "size_t" 02H 00H 01H
                                  437   CTYPEDEF 0000H 0000H 43H "cbfUart" 0AH 03H 00H 02H 2EH 00H 00H 00H 00H 00H 07H
                                  438   CTYPEDEF 0000H 0000H 43H "fpos_t" 04H 00H 05H 04H 00H
                                  439   CTYPEDEF 0000H 0000H 43H "cbfI2c" 0AH 03H 00H 02H 43H 00H 00H 00H 00H 00H 07H
                                  440   CTYPEDEF 0000H 0000H 03H "_Cmpfun_nf" 08H 02H 01H 00H 00H 00H 00H 00H 01H
                                  441   CTYPEDEF 0000H 0000H 03H "_Cmpfun_nn" 08H 02H 00H 00H 00H 00H 00H 00H 01H
                                  442   CTYPEDEF 0000H 0000H 03H "_Cmpfun_ff" 08H 02H 03H 00H 00H 00H 00H 00H 01H
                                  443   CTYPEDEF 0000H 0000H 03H "_Cmpfun_fn" 08H 02H 02H 00H 00H 00H 00H 00H 01H
                                  444   CTYPEDEF 0000H 0000H 43H "FILE" 04H 00H 05H 05H 00H
                                  445   CTYPEDEF 0000H 0000H 43H "div_t" 04H 00H 05H 01H 00H
                                  446   CTYPEDEF 0000H 0000H 43H "ldiv_t" 04H 00H 05H 02H 00H
                                  447   CTYPEDEF 0000H 0000H 43H "_BYTE_FIELD" 04H 00H 05H 00H 00H
                                  448   CGLOBAL 01H 00H 0001H "KX022_SELF_TEST" 02H 00H 00H
                                  449   CGLOBAL 01H 00H 0001H "BH1745_RED_DATA_LSBs" 02H 00H 00H
                                  450   CGLOBAL 01H 00H 0001H "BM1383GLV_ID" 02H 00H 00H
                                  451   CGLOBAL 00H 42H 0001H "_flgUartFin" 02H 00H 00H
                                  452   CGLOBAL 01H 00H 0001H "KMX61_WUFC" 02H 00H 00H
                                  453   CGLOBAL 01H 00H 0001H "BH1780GLI_REG_PART_ID" 02H 00H 00H
                                  454   CGLOBAL 01H 00H 0001H "KXG03_I2C_ADDR" 02H 00H 00H
                                  455   CGLOBAL 01H 00H 0001H "BM1383GLV_SLEEP_SLP" 02H 00H 00H
                                  456   CGLOBAL 01H 00H 0001H "BH1730FVC_CMD_RESET_INT_OUT" 02H 00H 00H
                                  457   CGLOBAL 01H 00H 0001H "BH1745_RED_DATA_MSBs" 02H 00H 00H
                                  458   CGLOBAL 01H 00H 0001H "KX022_INT_REL" 02H 00H 00H
                                  459   CGLOBAL 01H 00H 0001H "BH1780GLI_REG_DATALOW" 02H 00H 00H
                                  460   CGLOBAL 01H 00H 0001H "RPR0521_I2C_ADDR" 02H 00H 00H
                                  461   CGLOBAL 01H 00H 0001H "BH1721FVC_CONT_A_RES_MOD" 02H 00H 00H
                                  462   CGLOBAL 01H 00H 0001H "BM1383GLV_RESET_CONTROL" 02H 00H 00H
                                  463   CGLOBAL 01H 00H 0001H "KXG03_GYRO_XOUT_L" 02H 00H 00H
                                  464   CGLOBAL 01H 00H 0001H "KXG03_GYRO_ZOUT_L" 02H 00H 00H
                                  465   CGLOBAL 01H 00H 0001H "BH1710FVC_CONT_H_RES_MOD" 02H 00H 00H
                                  466   CGLOBAL 01H 00H 0001H "KXG03_GYRO_XOUT_H" 02H 00H 00H
                                  467   CGLOBAL 01H 00H 0001H "KXG03_GYRO_ZOUT_H" 02H 00H 00H
                                  468   CGLOBAL 01H 00H 0001H "BH1721FVC_CONT_H_RES_MOD" 02H 00H 00H
                                  469   CGLOBAL 01H 00H 0001H "BH1745_INTERRUPT" 02H 00H 00H
                                  470   CGLOBAL 01H 00H 0001H "BH1730FVC_REG_THHHIGH" 02H 00H 00H
                                  471   CGLOBAL 01H 00H 0001H "BH1745_I2C_ADDR" 02H 00H 00H
                                  472   CGLOBAL 01H 00H 0001H "KMX61_TEMP_EN_CNTL_CFGDAT" 02H 00H 00H
                                  473   CGLOBAL 01H 00H 0001H "KMX61_CNTL1_CFGDAT" 02H 00H 00H
                                  474   CGLOBAL 01H 00H 0001H "KMX61_CNTL2_CFGDAT" 02H 00H 00H
                                  475   CGLOBAL 01H 00H 0001H "BM1383GLV_I2C_ADDR" 02H 00H 00H
                                  476   CGLOBAL 01H 00H 0001H "BH1780GLI_REG_DATAHIGH" 02H 00H 00H
                                  477   CGLOBAL 00H 43H 0006H "uniRawSensorOut" 04H 00H 06H 06H 00H
                                  478   CGLOBAL 01H 00H 0001H "KMX61_BTSC" 02H 00H 00H
                                  479   CGLOBAL 01H 00H 0001H "KMX61_ODCNTL" 02H 00H 00H
                                  480   CGLOBAL 01H 00H 0001H "KMX61_COTR" 02H 00H 00H
                                  481   CGLOBAL 01H 00H 0001H "RPR0521_PS_ModeCTR_CFG" 02H 00H 00H
                                  482   CGLOBAL 01H 00H 0001H "KXG03_ODCTRL" 02H 00H 00H
                                  483   CGLOBAL 01H 00H 0001H "RPR0521_Prox_ModeCTR_CFG" 02H 00H 00H
                                  484   CGLOBAL 01H 00H 0001H "KX022_STAT" 02H 00H 00H
                                  485   CGLOBAL 01H 00H 0001H "KMX61_STATUS_REG" 02H 00H 00H
                                  486   CGLOBAL 01H 00H 0001H "BH1730FVC_REG_INTERRUPT" 02H 00H 00H
                                  487   CGLOBAL 01H 00H 0001H "RPR0521_ALS0_LSB" 02H 00H 00H
                                  488   CGLOBAL 01H 00H 0001H "KX022_XOUTL" 02H 00H 00H
                                  489   CGLOBAL 01H 00H 0001H "KX022_XOUTH" 02H 00H 00H
                                  490   CGLOBAL 01H 00H 0001H "RPR0521_ALS0_MSB" 02H 00H 00H
                                  491   CGLOBAL 01H 00H 0001H "KX022_BUF_READ" 02H 00H 00H
                                  492   CGLOBAL 01H 00H 0001H "KMX61_WUFTH" 02H 00H 00H
                                  493   CGLOBAL 01H 00H 0001H "KMX61_STBY_REG" 02H 00H 00H
                                  494   CGLOBAL 01H 00H 0001H "BH1710FVC_CONT_M_RES_MOD" 02H 00H 00H
                                  495   CGLOBAL 01H 00H 0001H "KX022_YHPL" 02H 00H 00H
                                  496   CGLOBAL 01H 00H 0001H "KMX62_CNTL2_CFG" 02H 00H 00H
                                  497   CGLOBAL 01H 00H 0001H "KX022_YHPH" 02H 00H 00H
                                  498   CGLOBAL 01H 00H 0001H "KX022_I2C_ADDR" 02H 00H 00H
                                  499   CGLOBAL 01H 00H 0001H "KX022_CNTL1_CFGDAT" 02H 00H 00H
                                  500   CGLOBAL 01H 00H 0001H "KMX61_INC1" 02H 00H 00H
                                  501   CGLOBAL 01H 00H 0001H "KMX61_INC2" 02H 00H 00H
                                  502   CGLOBAL 01H 00H 0001H "KMX61_INC3" 02H 00H 00H
                                  503   CGLOBAL 01H 00H 0001H "KX022_XHPL" 02H 00H 00H
                                  504   CGLOBAL 01H 00H 0001H "KX022_CNTL3_CFGDAT" 02H 00H 00H
                                  505   CGLOBAL 01H 00H 0001H "KX022_XHPH" 02H 00H 00H
                                  506   CGLOBAL 01H 00H 0001H "BH17xxFVC_PWR_DOWN" 02H 00H 00H
                                  507   CGLOBAL 01H 00H 0001H "KMX61_ACCEL_YOUT_H" 02H 00H 00H
                                  508   CGLOBAL 01H 00H 0001H "BH1710FVC_CONT_L_RES_MOD" 02H 00H 00H
                                  509   CGLOBAL 01H 00H 0001H "KMX61_ACCEL_YOUT_L" 02H 00H 00H
                                  510   CGLOBAL 01H 00H 0001H "BH1721FVC_CONT_L_RES_MOD" 02H 00H 00H
                                  511   CGLOBAL 01H 00H 0001H "KMX61_INS1" 02H 00H 00H
                                  512   CGLOBAL 01H 00H 0001H "KMX61_INS2" 02H 00H 00H
                                  513   CGLOBAL 01H 00H 0001H "KX022_TDTC" 02H 00H 00H
                                  514   CGLOBAL 01H 00H 0001H "BH1780GLI_REG_MFG_ID" 02H 00H 00H
                                  515   CSGLOBAL 42H 0001H "LEDFlashFlag" 02H 00H 00H
                                  516   CGLOBAL 01H 00H 0001H "RPR0521_ALS1_LSB" 02H 00H 00H
                                  517   CGLOBAL 01H 00H 0001H "RPR0521_ALS1_MSB" 02H 00H 00H
                                  518   CGLOBAL 01H 00H 0001H "KX022_ZHPL" 02H 00H 00H
                                  519   CGLOBAL 01H 00H 0001H "KX022_ZHPH" 02H 00H 00H
                                  520   CGLOBAL 01H 00H 0001H "KX022_TDTRC" 02H 00H 00H
                                  521   CGLOBAL 01H 00H 0001H "KMX61_MAG_YOUT_H" 02H 00H 00H
                                  522   CGLOBAL 01H 00H 0001H "KMX61_MAG_YOUT_L" 02H 00H 00H
                                  523   CGLOBAL 01H 00H 0001H "KMX62_MAG_XOUT_L" 02H 00H 00H
                                  524   CGLOBAL 01H 00H 0001H "KX022_TILT_ANGLE_HL" 02H 00H 00H
                                  525   CGLOBAL 01H 00H 0001H "KX022_TILT_ANGLE_LL" 02H 00H 00H
                                  526   CGLOBAL 01H 00H 0001H "KMX61_BUF_THRESH_H" 02H 00H 00H
                                  527   CGLOBAL 01H 00H 0001H "KMX61_BUF_THRESH_L" 02H 00H 00H
                                  528   CGLOBAL 01H 00H 0001H "BH1730FVC_CMD_STOP_MIM" 02H 00H 00H
                                  529   CGLOBAL 01H 00H 0001H "KX022_ODCNTL" 02H 00H 00H
                                  530   CGLOBAL 01H 00H 0001H "BM1383GLV_MODE_CONTROL" 02H 00H 00H
                                  531   CGLOBAL 01H 00H 0001H "KMX61_BUF_CLEAR" 02H 00H 00H
                                  532   CGLOBAL 01H 00H 0001H "BM1383GLV_SLEEP" 02H 00H 00H
                                  533   CGLOBAL 01H 00H 0001H "KXG03_CTRL_REG1_CFDAT" 02H 00H 00H
                                  534   CGLOBAL 01H 00H 0001H "KXG03_CTRL_REG2_CFDAT" 02H 00H 00H
                                  535   CGLOBAL 01H 00H 0001H "BH1745_PERSISTENCE" 02H 00H 00H
                                  536   CGLOBAL 01H 00H 0001H "BM1383GLV_MODE_CONTROL_MODE" 02H 00H 00H
                                  537   CSGLOBAL 01H 000AH "_uartSetParam" 04H 00H 05H 03H 00H
                                  538   CGLOBAL 01H 00H 0001H "KXG03_ACC_XOUT_H" 02H 00H 00H
                                  539   CGLOBAL 01H 00H 0001H "KXG03_ACC_ZOUT_L" 02H 00H 00H
                                  540   CGLOBAL 01H 00H 0001H "KXG03_ACC_XOUT_L" 02H 00H 00H
                                  541   CGLOBAL 01H 00H 0001H "KXG03_ACC_ZOUT_H" 02H 00H 00H
                                  542   CGLOBAL 01H 00H 0001H "KX022_BUF_STATUS_1" 02H 00H 00H
                                  543   CGLOBAL 01H 00H 0001H "KX022_BUF_STATUS_2" 02H 00H 00H
                                  544   CGLOBAL 01H 00H 0001H "KX022_WHO_AM_I" 02H 00H 00H
                                  545   CGLOBAL 01H 00H 0001H "BM1383GLV_PRESSURE_MSB" 02H 00H 00H
                                  546   CGLOBAL 01H 00H 0001H "BH1730FVC_REG_DATA1HIGH" 02H 00H 00H
                                  547   CGLOBAL 01H 00H 0001H "KX022_ZOUTL" 02H 00H 00H
                                  548   CGLOBAL 01H 00H 0001H "KX022_ZOUTH" 02H 00H 00H
                                  549   CGLOBAL 01H 00H 0001H "BM1383GLV_PRESSURE_LSB" 02H 00H 00H
                                  550   CGLOBAL 01H 00H 0001H "KX022_TSCP" 02H 00H 00H
                                  551   CGLOBAL 01H 00H 0001H "KMX61_ODCNTL_CFGDAT" 02H 00H 00H
                                  552   CSGLOBAL 42H 0001H "SensorPlatformSelection" 02H 00H 00H
                                  553   CGLOBAL 01H 00H 0001H "BM1383GLV_TEMPERATURE_LSB" 02H 00H 00H
                                  554   CGLOBAL 01H 00H 0001H "KX022_TSPP" 02H 00H 00H
                                  555   CGLOBAL 01H 00H 0001H "BH1730FVC_REG_TIMING" 02H 00H 00H
                                  556   CGLOBAL 01H 00H 0001H "BM1383GLV_TEMPERATURE_MSB" 02H 00H 00H
                                  557   CGLOBAL 01H 00H 0001H "RPR0521_ALS_ModeCTR_CFG" 02H 00H 00H
                                  558   CGLOBAL 01H 00H 0001H "KMX61_BTH" 02H 00H 00H
                                  559   CGLOBAL 01H 00H 0001H "KX022_TILT_TIMER_CFGDAT" 02H 00H 00H
                                  560   CGLOBAL 01H 00H 0001H "BH1730FVC_REG_ID" 02H 00H 00H
                                  561   CGLOBAL 01H 00H 0001H "KMX61_TEMP_EN_CNTL" 02H 00H 00H
                                  562   CGLOBAL 01H 00H 0001H "KMX61_CNTL1" 02H 00H 00H
                                  563   CGLOBAL 01H 00H 0001H "KMX61_CNTL2" 02H 00H 00H
                                  564   CGLOBAL 01H 00H 0001H "KMX62_CNTL2" 02H 00H 00H
                                  565   CGLOBAL 01H 00H 0001H "KMX61_XOUT_HPF_L" 02H 00H 00H
                                  566   CSGLOBAL 42H 0001H "LEDChangeFlag" 02H 00H 00H
                                  567   CGLOBAL 01H 00H 0001H "KMX61_XOUT_HPF_H" 02H 00H 00H
                                  568   CGLOBAL 01H 00H 0001H "KX022_BUF_CLEAR" 02H 00H 00H
                                  569   CGLOBAL 01H 00H 0001H "BH1710FVC_RESET" 02H 00H 00H
                                  570   CGLOBAL 01H 00H 0001H "BH1745_GREEN_DATA_LSBs" 02H 00H 00H
                                  571   CGLOBAL 01H 00H 0001H "BM1383GLV_MODE_CONTROL_REG" 02H 00H 00H
                                  572   CGLOBAL 01H 00H 0001H "BH1730FVC_REG_CONTROL" 02H 00H 00H
                                  573   CGLOBAL 01H 00H 0001H "KMX61_INL" 02H 00H 00H
                                  574   CGLOBAL 01H 00H 0001H "KX022_WUFC" 02H 00H 00H
                                  575   CGLOBAL 01H 00H 0001H "BH1730FVC_REG_DATA0HIGH" 02H 00H 00H
                                  576   CGLOBAL 01H 00H 0001H "KX022_YOUTL" 02H 00H 00H
                                  577   CGLOBAL 01H 00H 0001H "KXG03_GYRO_YOUT_L" 02H 00H 00H
                                  578   CGLOBAL 01H 00H 0001H "KX022_YOUTH" 02H 00H 00H
                                  579   CGLOBAL 01H 00H 0001H "KXG03_GYRO_YOUT_H" 02H 00H 00H
                                  580   CGLOBAL 01H 00H 0001H "BH17xxFVC_PWR_ON" 02H 00H 00H
                                  581   CGLOBAL 01H 00H 0001H "BH1745_GREEN_DATA_MSBs" 02H 00H 00H
                                  582   CGLOBAL 01H 00H 0001H "BH1710FVC_ONET_L_RES_MOD" 02H 00H 00H
                                  583   CGLOBAL 01H 00H 0001H "KMX61_ZOUT_HPF_L" 02H 00H 00H
                                  584   CGLOBAL 01H 00H 0001H "KX022_LP_CNTL" 02H 00H 00H
                                  585   CGLOBAL 01H 00H 0001H "KX022_ODCNTL_CFGDAT" 02H 00H 00H
                                  586   CGLOBAL 01H 00H 0001H "BH1730FVC_REG_THLHIGH" 02H 00H 00H
                                  587   CGLOBAL 01H 00H 0001H "KMX61_ZOUT_HPF_H" 02H 00H 00H
                                  588   CGLOBAL 01H 00H 0001H "KMX61_YOUT_HPF_L" 02H 00H 00H
                                  589   CGLOBAL 01H 00H 0001H "BH1730FVC_CMD_START_MIM" 02H 00H 00H
                                  590   CGLOBAL 01H 00H 0001H "KMX61_YOUT_HPF_H" 02H 00H 00H
                                  591   CGLOBAL 01H 00H 0001H "RPR0521_Prox_ModeCTR" 02H 00H 00H
                                  592   CGLOBAL 01H 00H 0001H "KX022_ATH" 02H 00H 00H
                                  593   CGLOBAL 01H 00H 0001H "KMX61_SN_1" 02H 00H 00H
                                  594   CGLOBAL 01H 00H 0001H "KMX61_SN_2" 02H 00H 00H
                                  595   CGLOBAL 01H 00H 0001H "KMX61_SN_3" 02H 00H 00H
                                  596   CGLOBAL 01H 00H 0001H "BH1745_MODE_CONTROL1" 02H 00H 00H
                                  597   CGLOBAL 01H 00H 0001H "BH1745_MODE_CONTROL2" 02H 00H 00H
                                  598   CGLOBAL 01H 00H 0001H "BH1745_MODE_CONTROL3" 02H 00H 00H
                                  599   CGLOBAL 01H 00H 0001H "KMX61_SN_4" 02H 00H 00H
                                  600   CGLOBAL 01H 00H 0001H "BH1780GLI_REG_CONTROL" 02H 00H 00H
                                  601   CGLOBAL 01H 00H 0001H "BM1383GLV_POWER_ON" 02H 00H 00H
                                  602   CGLOBAL 00H 42H 0001H "_flgI2CFin" 02H 00H 00H
                                  603   CGLOBAL 01H 00H 0001H "KX022_COTR" 02H 00H 00H
                                  604   CGLOBAL 01H 00H 0001H "RPR0521_PS_ModeCTR" 02H 00H 00H
                                  605   CGLOBAL 01H 00H 0001H "KMX61_SELF_TEST_CFGDAT" 02H 00H 00H
                                  606   CGLOBAL 01H 00H 0001H "BH1745_SYSTEM_CONTROL" 02H 00H 00H
                                  607   CGLOBAL 01H 00H 0001H "BM1383GLV_POWER_DOWN" 02H 00H 00H
                                  608   CGLOBAL 01H 00H 0001H "KX022_FTD" 02H 00H 00H
                                  609   CGLOBAL 01H 00H 0001H "KX022_BUF_CNTL1" 02H 00H 00H
                                  610   CGLOBAL 01H 00H 0001H "KX022_BUF_CNTL2" 02H 00H 00H
                                  611   CGLOBAL 01H 00H 0001H "KMX61_I2C_ADDR" 02H 00H 00H
                                  612   CGLOBAL 01H 00H 0001H "RPR0521_ALS_ModeCTR" 02H 00H 00H
                                  613   CGLOBAL 01H 00H 0001H "KMX61_BUF_READ" 02H 00H 00H
                                  614   CGLOBAL 01H 00H 0001H "BH17xxFVC_ADDR_1" 02H 00H 00H
                                  615   CGLOBAL 01H 00H 0001H "BH17xxFVC_ADDR_2" 02H 00H 00H
                                  616   CGLOBAL 01H 00H 0001H "BH1730FVC_REG_THHLOW" 02H 00H 00H
                                  617   CGLOBAL 01H 00H 0001H "BH1710FVC_ONET_M_RES_MOD" 02H 00H 00H
                                  618   CGLOBAL 01H 00H 0001H "KX022_CNTL1" 02H 00H 00H
                                  619   CGLOBAL 01H 00H 0001H "KX022_CNTL2" 02H 00H 00H
                                  620   CGLOBAL 01H 00H 0001H "KX022_CNTL3" 02H 00H 00H
                                  621   CGLOBAL 01H 00H 0001H "KMX61_TEMP_OUT_H" 02H 00H 00H
                                  622   CGLOBAL 01H 00H 0001H "KMX61_TEMP_OUT_L" 02H 00H 00H
                                  623   CGLOBAL 00H 42H 0001H "_reqNotHalt" 02H 00H 00H
                                  624   CGLOBAL 01H 00H 0001H "BM1383GLV_POWER_OFF" 02H 00H 00H
                                  625   CGLOBAL 01H 00H 0001H "KX022_STD" 02H 00H 00H
                                  626   CGLOBAL 01H 00H 0001H "KXG03_STBY_REG" 02H 00H 00H
                                  627   CGLOBAL 01H 00H 0001H "KMX61_ACCEL_XOUT_H" 02H 00H 00H
                                  628   CGLOBAL 01H 00H 0001H "KMX61_ACCEL_ZOUT_H" 02H 00H 00H
                                  629   CGLOBAL 01H 00H 0001H "BH1745_BLUE_DATA_MSBs" 02H 00H 00H
                                  630   CGLOBAL 01H 00H 0001H "KMX61_ACCEL_XOUT_L" 02H 00H 00H
                                  631   CGLOBAL 01H 00H 0001H "KMX61_ACCEL_ZOUT_L" 02H 00H 00H
                                  632   CGLOBAL 00H 43H 000CH "flSensorOut" 05H 01H 03H 00H 00H 03H
                                  633   CGLOBAL 01H 00H 0001H "BH1710FVC_ONET_H_RES_MOD" 02H 00H 00H
                                  634   CGLOBAL 01H 00H 0001H "KMX61_BUF_CTRL2_CFGDAT" 02H 00H 00H
                                  635   CGLOBAL 01H 00H 0001H "KX022_INC1" 02H 00H 00H
                                  636   CGLOBAL 01H 00H 0001H "KX022_INC2" 02H 00H 00H
                                  637   CGLOBAL 01H 00H 0001H "KX022_INC3" 02H 00H 00H
                                  638   CGLOBAL 01H 00H 0001H "KMX61_BUF_CTRL1_CFGDAT" 02H 00H 00H
                                  639   CGLOBAL 01H 00H 0001H "KX022_INC4" 02H 00H 00H
                                  640   CGLOBAL 01H 00H 0001H "KX022_INC5" 02H 00H 00H
                                  641   CGLOBAL 01H 00H 0001H "BH1730FVC_REG_GAIN" 02H 00H 00H
                                  642   CGLOBAL 01H 00H 0001H "KX022_INC6" 02H 00H 00H
                                  643   CGLOBAL 01H 00H 0001H "KXG03_CTRL_REG1" 02H 00H 00H
                                  644   CGLOBAL 01H 00H 0001H "KXG03_CTRL_REG2" 02H 00H 00H
                                  645   CGLOBAL 01H 00H 0001H "KX022_TLT" 02H 00H 00H
                                  646   CGLOBAL 01H 00H 0001H "KMX61_BUF_CTRL1" 02H 00H 00H
                                  647   CGLOBAL 01H 00H 0001H "KMX61_BUF_CTRL2" 02H 00H 00H
                                  648   CGLOBAL 01H 00H 0001H "BH1745_BLUE_DATA_LSBs" 02H 00H 00H
                                  649   CGLOBAL 01H 00H 0001H "BH1730FVC_CMD_SW_RESET" 02H 00H 00H
                                  650   CGLOBAL 01H 00H 0001H "KXG03_STBY_SET" 02H 00H 00H
                                  651   CGLOBAL 01H 00H 0001H "KX022_TTH" 02H 00H 00H
                                  652   CGLOBAL 01H 00H 0001H "KXG03_ODCTRL_CFDAT" 02H 00H 00H
                                  653   CGLOBAL 01H 00H 0001H "KX022_TTL" 02H 00H 00H
                                  654   CGLOBAL 01H 00H 0001H "KX022_INS1" 02H 00H 00H
                                  655   CGLOBAL 01H 00H 0001H "KX022_INS2" 02H 00H 00H
                                  656   CGLOBAL 01H 00H 0001H "KX022_INS3" 02H 00H 00H
                                  657   CGLOBAL 01H 00H 0001H "KX022_TWS" 02H 00H 00H
                                  658   CGLOBAL 01H 00H 0001H "KMX61_BUF_STATUS_L" 02H 00H 00H
                                  659   CGLOBAL 01H 00H 0001H "RPR0521_Manufact_ID" 02H 00H 00H
                                  660   CGLOBAL 01H 00H 0001H "BH1730FVC_REG_DATA0LOW" 02H 00H 00H
                                  661   CGLOBAL 01H 00H 0001H "KMX61_BUF_STATUS_H" 02H 00H 00H
                                  662   CGLOBAL 01H 00H 0001H "KMX61_MAG_XOUT_H" 02H 00H 00H
                                  663   CGLOBAL 01H 00H 0001H "KMX61_MAG_ZOUT_H" 02H 00H 00H
                                  664   CGLOBAL 01H 00H 0001H "KMX61_MAG_XOUT_L" 02H 00H 00H
                                  665   CGLOBAL 01H 00H 0001H "KMX61_MAG_ZOUT_L" 02H 00H 00H
                                  666   CGLOBAL 01H 00H 0001H "KMX61_SELF_TEST" 02H 00H 00H
                                  667   CSGLOBAL 42H 0001H "SensorIntializationFlag" 02H 00H 00H
                                  668   CGLOBAL 01H 00H 0001H "BH1730FVC_REG_THLLOW" 02H 00H 00H
                                  669   CGLOBAL 01H 00H 0001H "KX022_HYST_SET" 02H 00H 00H
                                  670   CGLOBAL 01H 00H 0001H "BM1383GLV_SLEEP_ACT" 02H 00H 00H
                                  671   CGLOBAL 01H 00H 0001H "KMX61_WHO_AM_I" 02H 00H 00H
                                  672   CGLOBAL 01H 00H 0001H "KXG03_ACC_YOUT_L" 02H 00H 00H
                                  673   CGLOBAL 00H 42H 0001H "_flgADCFin" 02H 00H 00H
                                  674   CGLOBAL 01H 00H 0001H "KXG03_ACC_YOUT_H" 02H 00H 00H
                                  675   CGLOBAL 01H 00H 0001H "RPR0521_Prox_PS_LSB" 02H 00H 00H
                                  676   CGLOBAL 01H 00H 0001H "RPR0521_Prox_PS_MSB" 02H 00H 00H
                                  677   CGLOBAL 01H 00H 0001H "KX022_TILT_TIMER" 02H 00H 00H
                                  678   CGLOBAL 01H 00H 0001H "BH1730FVC_REG_DATA1LOW" 02H 00H 00H
                                  679   CGLOBAL 01H 00H 0001H "BM1383GLV_MODE_CONTROL_AVGN" 02H 00H 00H
                                  680   CGLOBAL 01H 00H 0001H "KMX61_BUF_STATUS_REG" 02H 00H 00H
                                  681   CGLOBAL 01H 00H 0001H "BH1745_MANUFACTURER_ID" 02H 00H 00H
                                  682   CFILE 0001H 0000085AH "main\\ML610112.H"
                                  683   CFILE 0002H 000000D8H "main\\stdlib.h"
                                  684   CFILE 0003H 0000007AH "main\\yvals.h"
                                  685   CFILE 0004H 0000006BH "uart\\uart.h"
                                  686   CFILE 0005H 00000027H "common\\common.h"
                                  687   CFILE 0006H 00000057H "irq\\irq.h"
                                  688   CFILE 0007H 00000023H "main\\mcu.h"
                                  689   CFILE 0008H 00000045H "i2c\\i2c.h"
                                  690   CFILE 0009H 00000046H "tbc\\tbc.h"
                                  691   CFILE 000AH 000001B8H "timer\\timer.h"
                                  692   CFILE 000BH 000000EEH "main\\stdio.h"
                                  693   CFILE 0000H 0000094FH "main\\main.c"
                                  694   
  --------------------------      695   	rseg $$main$main
                                  696   CFUNCTION 237
                                  697   
00:0000                           698   _main	:
                                  699   CBLOCK 237 1 547
                                  700   
                                  701   ;;{ 	
                                  702   CLINEA 0000H 0001H 0223H 0001H 0003H
                                  703   CBLOCK 237 2 547
                                  704   
                                  705   ;;	Initialization(); //Ports, UART, Timers, Oscillator, Comparators, etc.
                                  706   CLINEA 0000H 0001H 0224H 0002H 0047H
00:0000 01-F0'00-00'              707   	bl	_Initialization
                                  708   
                                  709   ;;	PRINTF(WelcomeString);
                                  710   CLINEA 0000H 0001H 0226H 0002H 0017H
00:0004 01 00                     711   	mov	r0,	#01h
00:0006 01 01                     712   	mov	r1,	#01h
00:0008 5E-F0                     713   	push	er0
00:000A 00'02                     714   	mov	r2,	#BYTE1 OFFSET $$S30
00:000C 00'03                     715   	mov	r3,	#BYTE2 OFFSET $$S30
00:000E 00 E0                     716   	mov	er0,	#0 
00:0010 01-F0'00-00'              717   	bl	_write
00:0014 02 E1                     718   	add	sp,	#2 
                                  719   
                                  720   ;;MainLoop:
                                  721   CLINEA 0000H 0001H 022DH 0001H 0009H
                                  722   CLABEL 001FH "MainLoop"
00:0016                           723   _$L31 :
                                  724   
                                  725   ;;	main_clrWDT();
                                  726   CLINEA 0000H 0001H 022EH 0002H 000FH
00:0016 01-F0'00-00'              727   	bl	_main_clrWDT
                                  728   
                                  729   ;;	DeviceSelection(); 	// SensorPlatformSelection holds 8-bits of sensor type
                                  730   CLINEA 0000H 0001H 0231H 0002H 004BH
00:001A 01-F0'00-00'              731   	bl	_DeviceSelection
                                  732   
                                  733   ;;	if(SensorIntializationFlag==1){	//Holds the SW Statement for Initializing Sensors
                                  734   CLINEA 0000H 0001H 0234H 0002H 0052H
00:001E 10-90 00-00'              735   	l	r0,	NEAR _SensorIntializationFlag
00:0022 01 70                     736   	cmp	r0,	#01h
00:0024 05 C8                     737   	bne	_$L32
                                  738   CBLOCK 237 3 564
                                  739   
                                  740   ;;		SensorInitialization();
                                  741   CLINEA 0000H 0001H 0235H 0003H 0019H
00:0026 01-F0'00-00'              742   	bl	_SensorInitialization
                                  743   
                                  744   ;;		SensorIntializationFlag = 0;
                                  745   CLINEA 0000H 0001H 0236H 0003H 001EH
00:002A 00 00                     746   	mov	r0,	#00h
00:002C 11-90 00-00'              747   	st	r0,	NEAR _SensorIntializationFlag
                                  748   CBLOCKEND 237 3 567
                                  749   
                                  750   ;;	}
                                  751   CLINEA 0000H 0000H 0237H 0002H 0002H
00:0030                           752   _$L32 :
                                  753   
                                  754   ;;	switch(SensorPlatformSelection){
                                  755   CLINEA 0000H 0001H 0239H 0002H 0021H
00:0030 10-90 00-00'              756   	l	r0,	NEAR _SensorPlatformSelection
00:0034 00 01                     757   	mov	r1,	#00h
                                  758   CBLOCK 237 4 569
00:0036 38 70                     759   	cmp	r0,	#038h
00:0038 00 51                     760   	cmpc	r1,	#00h
00:003A 02 C3                     761   	ble	_$M2
00:003C 00-F0'00-00'              762   	b	_$L38
00:0040                           763   _$M2 :
00:0040 01 70                     764   	cmp	r0,	#01h
00:0042 00 51                     765   	cmpc	r1,	#00h
00:0044 02 C0                     766   	bge	_$M3
00:0046 00-F0'00-00'              767   	b	_$L38
00:004A                           768   _$M3 :
00:004A FF E0                     769   	add	er0,	#-1
00:004C 1B-91                     770   	sllc	r1,	#01h
00:004E 1A-90                     771   	sll	r0,	#01h
00:0050 08-A0 00-00'              772   	l	er0,	NEAR _$M1[er0]
00:0054 02-F0                     773   	b	er0
                                  774   
                                  775   ;;	}
00:0056                           776   _$L37 :
                                  777   
                                  778   ;;	HLT = 1;	//Wait time here depends on the WDT timing
                                  779   CLINEA 0000H 0001H 028AH 0002H 0034H
00:0056 80-A0 09-F0               780   	sb	0f009h.0
                                  781   
                                  782   ;;	__asm("nop\n"); 
                                  783   CLINEA 0000H 0001H 028BH 0002H 0011H
00:005A 8F-FE                     784   nop
                                  785   
                                  786   
                                  787   ;;	__asm("nop\n");
                                  788   CLINEA 0000H 0001H 028CH 0002H 0010H
00:005C 8F-FE                     789   nop
                                  790   
                                  791   
                                  792   ;;	goto MainLoop;
                                  793   CLINEA 0000H 0001H 028EH 0002H 000FH
00:005E DB CE                     794   	bal	_$L31
                                  795   CBLOCKEND 237 2 655
                                  796   
                                  797   ;;		case 1:
                                  798   CLINEA 0000H 0001H 023AH 0003H 0009H
00:0060                           799   _$S39 :
                                  800   
                                  801   ;;			MainOp_Hall_Effect_Sensors_1(); // Refer to function description for list of sensors
                                  802   CLINEA 0000H 0001H 023BH 0004H 0057H
00:0060 01-F0'00-00'              803   	bl	_MainOp_Hall_Effect_Sensors_1
                                  804   
                                  805   ;;			break;
                                  806   CLINEA 0000H 0001H 023CH 0004H 0009H
00:0064 F8 CE                     807   	bal	_$L37
                                  808   
                                  809   ;;		case 2:
                                  810   CLINEA 0000H 0001H 023DH 0003H 0009H
00:0066                           811   _$S40 :
                                  812   
                                  813   ;;			MainOp_Hall_Effect_Sensors_2(); // Refer to function description for list of sensors 
                                  814   CLINEA 0000H 0001H 023EH 0004H 0058H
00:0066 01-F0'00-00'              815   	bl	_MainOp_Hall_Effect_Sensors_2
                                  816   
                                  817   ;;			break;
                                  818   CLINEA 0000H 0001H 023FH 0004H 0009H
00:006A F5 CE                     819   	bal	_$L37
                                  820   
                                  821   ;;		case 48:
                                  822   CLINEA 0000H 0001H 0241H 0003H 000AH
00:006C                           823   _$S41 :
                                  824   
                                  825   ;;			MainOp_Temperature_Sensor_22();
                                  826   CLINEA 0000H 0001H 0243H 0004H 0022H
00:006C 01-F0'00-00'              827   	bl	_MainOp_Temperature_Sensor_22
                                  828   
                                  829   ;;			MainOp_UV_Sensor_10();
                                  830   CLINEA 0000H 0001H 0244H 0004H 0019H
00:0070 01-F0'00-00'              831   	bl	_MainOp_UV_Sensor_10
                                  832   
                                  833   ;;			MainOp_Hall_Effect_Sensors_2();
                                  834   CLINEA 0000H 0001H 0245H 0004H 0022H
00:0074 01-F0'00-00'              835   	bl	_MainOp_Hall_Effect_Sensors_2
                                  836   
                                  837   ;;			MainOp_KMX61();
                                  838   CLINEA 0000H 0001H 0246H 0004H 0012H
00:0078 01-F0'00-00'              839   	bl	_MainOp_KMX61
                                  840   
                                  841   ;;			MainOp_Pressure_Sensor_3();
                                  842   CLINEA 0000H 0001H 0248H 0004H 001EH
00:007C 01-F0'00-00'              843   	bl	_MainOp_Pressure_Sensor_3
                                  844   
                                  845   ;;			MainOp_ALS_PROX_Sensor_11();
                                  846   CLINEA 0000H 0001H 0249H 0004H 001FH
00:0080 01-F0'00-00'              847   	bl	_MainOp_ALS_PROX_Sensor_11
                                  848   
                                  849   ;;			MainOp_Color_Sensor_4();
                                  850   CLINEA 0000H 0001H 024AH 0004H 001BH
00:0084 01-F0'00-00'              851   	bl	_MainOp_Color_Sensor_4
                                  852   
                                  853   ;;			MainOp_KX022();
                                  854   CLINEA 0000H 0001H 024CH 0004H 0012H
00:0088 01-F0'00-00'              855   	bl	_MainOp_KX022
                                  856   
                                  857   ;;			break;
                                  858   CLINEA 0000H 0001H 0251H 0004H 0009H
00:008C E4 CE                     859   	bal	_$L37
                                  860   
                                  861   ;;		case 49:
                                  862   CLINEA 0000H 0001H 0252H 0003H 000AH
00:008E                           863   _$S42 :
                                  864   
                                  865   ;;			MainOp_Pressure_Sensor_3();
                                  866   CLINEA 0000H 0001H 0253H 0004H 001EH
00:008E 01-F0'00-00'              867   	bl	_MainOp_Pressure_Sensor_3
                                  868   
                                  869   ;;			break;
                                  870   CLINEA 0000H 0001H 0254H 0004H 0009H
00:0092 E1 CE                     871   	bal	_$L37
                                  872   
                                  873   ;;		case 50:
                                  874   CLINEA 0000H 0001H 0255H 0003H 000AH
00:0094                           875   _$S43 :
                                  876   
                                  877   ;;			MainOp_Color_Sensor_4();
                                  878   CLINEA 0000H 0001H 0256H 0004H 001BH
00:0094 01-F0'00-00'              879   	bl	_MainOp_Color_Sensor_4
                                  880   
                                  881   ;;			break;
                                  882   CLINEA 0000H 0001H 0257H 0004H 0009H
00:0098 DE CE                     883   	bal	_$L37
                                  884   
                                  885   ;;		case 56:
                                  886   CLINEA 0000H 0001H 0258H 0003H 000AH
00:009A                           887   _$S44 :
                                  888   
                                  889   ;;			MainOp_ALS_PROX_Sensor_11();
                                  890   CLINEA 0000H 0001H 0259H 0004H 001FH
00:009A 01-F0'00-00'              891   	bl	_MainOp_ALS_PROX_Sensor_11
                                  892   
                                  893   ;;			break;
                                  894   CLINEA 0000H 0001H 025AH 0004H 0009H
00:009E DB CE                     895   	bal	_$L37
                                  896   
                                  897   ;;		case 52:
                                  898   CLINEA 0000H 0001H 025BH 0003H 000AH
00:00A0                           899   _$S45 :
                                  900   
                                  901   ;;			MainOp_KXG03_Sensor_12();
                                  902   CLINEA 0000H 0001H 025CH 0004H 001CH
00:00A0 01-F0'00-00'              903   	bl	_MainOp_KXG03_Sensor_12
                                  904   
                                  905   ;;			break;
                                  906   CLINEA 0000H 0001H 025DH 0004H 0009H
00:00A4 D8 CE                     907   	bal	_$L37
                                  908   
                                  909   ;;		case 5: 
                                  910   CLINEA 0000H 0001H 025FH 0003H 000AH
00:00A6                           911   _$S46 :
                                  912   
                                  913   ;;			MainOp_Ambient_Light_Sensor_5(); // Refer to function description for list of sensors
                                  914   CLINEA 0000H 0001H 0260H 0004H 0058H
00:00A6 01-F0'00-00'              915   	bl	_MainOp_Ambient_Light_Sensor_5
                                  916   
                                  917   ;;			break;
                                  918   CLINEA 0000H 0001H 0261H 0004H 0009H
00:00AA D5 CE                     919   	bal	_$L37
                                  920   
                                  921   ;;		case 6:
                                  922   CLINEA 0000H 0001H 0262H 0003H 0009H
00:00AC                           923   _$S47 :
                                  924   
                                  925   ;;			MainOp_Ambient_Light_Sensor_6(); // Refer to function description for list of sensors 
                                  926   CLINEA 0000H 0001H 0263H 0004H 0059H
00:00AC 01-F0'00-00'              927   	bl	_MainOp_Ambient_Light_Sensor_6
                                  928   
                                  929   ;;			break;
                                  930   CLINEA 0000H 0001H 0264H 0004H 0009H
00:00B0 D2 CE                     931   	bal	_$L37
                                  932   
                                  933   ;;		case 7:
                                  934   CLINEA 0000H 0001H 0265H 0003H 0009H
00:00B2                           935   _$S48 :
                                  936   
                                  937   ;;			MainOp_Ambient_Light_Sensor_7(); // Refer to function description for list of sensors 
                                  938   CLINEA 0000H 0001H 0266H 0004H 0059H
00:00B2 01-F0'00-00'              939   	bl	_MainOp_Ambient_Light_Sensor_7
                                  940   
                                  941   ;;			break;
                                  942   CLINEA 0000H 0001H 0267H 0004H 0009H
00:00B6 CF CE                     943   	bal	_$L37
                                  944   
                                  945   ;;		case 8:
                                  946   CLINEA 0000H 0001H 0268H 0003H 0009H
00:00B8                           947   _$S49 :
                                  948   
                                  949   ;;			MainOp_Ambient_Light_Sensor_8(); // Refer to function description for list of sensors 
                                  950   CLINEA 0000H 0001H 0269H 0004H 0059H
00:00B8 01-F0'00-00'              951   	bl	_MainOp_Ambient_Light_Sensor_8
                                  952   
                                  953   ;;			break;
                                  954   CLINEA 0000H 0001H 026AH 0004H 0009H
00:00BC CC CE                     955   	bal	_$L37
                                  956   
                                  957   ;;		case 9:
                                  958   CLINEA 0000H 0001H 026BH 0003H 0009H
00:00BE                           959   _$S50 :
                                  960   
                                  961   ;;			MainOp_Ambient_Light_Sensor_9(); // Refer to function description for list of sensors 
                                  962   CLINEA 0000H 0001H 026CH 0004H 0059H
00:00BE 01-F0'00-00'              963   	bl	_MainOp_Ambient_Light_Sensor_9
                                  964   
                                  965   ;;			break;
                                  966   CLINEA 0000H 0001H 026DH 0004H 0009H
00:00C2 C9 CE                     967   	bal	_$L37
                                  968   
                                  969   ;;		case 10:
                                  970   CLINEA 0000H 0001H 026EH 0003H 000AH
00:00C4                           971   _$S51 :
                                  972   
                                  973   ;;			MainOp_UV_Sensor_10(); // Refer to function description for list of sensors 
                                  974   CLINEA 0000H 0001H 026FH 0004H 004FH
00:00C4 01-F0'00-00'              975   	bl	_MainOp_UV_Sensor_10
                                  976   
                                  977   ;;			break;
                                  978   CLINEA 0000H 0001H 0270H 0004H 0009H
00:00C8 C6 CE                     979   	bal	_$L37
                                  980   
                                  981   ;;		case 15:
                                  982   CLINEA 0000H 0001H 0271H 0003H 000AH
00:00CA                           983   _$S52 :
                                  984   
                                  985   ;;			MainOp_KX022(); // Refer to function description for list of sensors 
                                  986   CLINEA 0000H 0001H 0272H 0004H 0048H
00:00CA 01-F0'00-00'              987   	bl	_MainOp_KX022
                                  988   
                                  989   ;;			break;
                                  990   CLINEA 0000H 0001H 0273H 0004H 0009H
00:00CE C3 CE                     991   	bal	_$L37
                                  992   
                                  993   ;;		case 16:
                                  994   CLINEA 0000H 0001H 0274H 0003H 000AH
00:00D0                           995   _$S53 :
                                  996   
                                  997   ;;			MainOp_KMX61(); // Refer to function description for list of sensors 
                                  998   CLINEA 0000H 0001H 0275H 0004H 0048H
00:00D0 01-F0'00-00'              999   	bl	_MainOp_KMX61
                                 1000   
                                 1001   ;;			break;
                                 1002   CLINEA 0000H 0001H 0276H 0004H 0009H
00:00D4 00-F0'00-00'             1003   	b	_$L37
                                 1004   
                                 1005   ;;		case 20:
                                 1006   CLINEA 0000H 0001H 0277H 0003H 000AH
00:00D8                          1007   _$S54 :
                                 1008   
                                 1009   ;;			MainOp_Temperature_Sensor_20(); // Refer to function description for list of sensors 
                                 1010   CLINEA 0000H 0001H 0278H 0004H 0058H
00:00D8 01-F0'00-00'             1011   	bl	_MainOp_Temperature_Sensor_20
                                 1012   
                                 1013   ;;			break;
                                 1014   CLINEA 0000H 0001H 0279H 0004H 0009H
00:00DC 00-F0'00-00'             1015   	b	_$L37
                                 1016   
                                 1017   ;;		case 21:
                                 1018   CLINEA 0000H 0001H 027AH 0003H 000AH
00:00E0                          1019   _$S55 :
                                 1020   
                                 1021   ;;			MainOp_Temperature_Sensor_21(); // Refer to function description for list of sensors
                                 1022   CLINEA 0000H 0001H 027BH 0004H 0057H
00:00E0 01-F0'00-00'             1023   	bl	_MainOp_Temperature_Sensor_21
                                 1024   
                                 1025   ;;			break;
                                 1026   CLINEA 0000H 0001H 027CH 0004H 0009H
00:00E4 00-F0'00-00'             1027   	b	_$L37
                                 1028   
                                 1029   ;;		case 22:
                                 1030   CLINEA 0000H 0001H 027DH 0003H 000AH
00:00E8                          1031   _$S56 :
                                 1032   
                                 1033   ;;			MainOp_Temperature_Sensor_22(); // Refer to function description for list of sensors 
                                 1034   CLINEA 0000H 0001H 027EH 0004H 0058H
00:00E8 01-F0'00-00'             1035   	bl	_MainOp_Temperature_Sensor_22
                                 1036   
                                 1037   ;;			break;
                                 1038   CLINEA 0000H 0001H 027FH 0004H 0009H
00:00EC 00-F0'00-00'             1039   	b	_$L37
                                 1040   
                                 1041   ;;		case 23:
                                 1042   CLINEA 0000H 0001H 0280H 0003H 000AH
00:00F0                          1043   _$S57 :
                                 1044   
                                 1045   ;;			MainOp_Temperature_Sensor_23(); // Refer to function description for list of sensors
                                 1046   CLINEA 0000H 0001H 0281H 0004H 0057H
00:00F0 01-F0'00-00'             1047   	bl	_MainOp_Temperature_Sensor_23
                                 1048   
                                 1049   ;;			break; 
                                 1050   CLINEA 0000H 0001H 0282H 0004H 000AH
00:00F4 00-F0'00-00'             1051   	b	_$L37
                                 1052   
                                 1053   ;;		default:
                                 1054   CLINEA 0000H 0001H 0283H 0003H 000AH
00:00F8                          1055   _$L38 :
                                 1056   
                                 1057   ;;			PRINTF(ESC_ERASE2END "No device connected." ESC_SOL);
                                 1058   CLINEA 0000H 0001H 0284H 0004H 0038H
00:00F8 19 E0                    1059   	mov	er0,	#25
00:00FA 5E-F0                    1060   	push	er0
00:00FC 00'02                    1061   	mov	r2,	#BYTE1 OFFSET $$S58
00:00FE 00'03                    1062   	mov	r3,	#BYTE2 OFFSET $$S58
00:0100 00 E0                    1063   	mov	er0,	#0 
00:0102 01-F0'00-00'             1064   	bl	_write
00:0106 02 E1                    1065   	add	sp,	#2 
                                 1066   
                                 1067   ;;			printf(ESC_ERASE2END "device selected = %lu[lx]" ESC_SOL, (unsigned long)SensorPlatformSelection);
                                 1068   CLINEA 0000H 0001H 0285H 0004H 0065H
00:0108 10-90 00-00'             1069   	l	r0,	NEAR _SensorPlatformSelection
00:010C 00 01                    1070   	mov	r1,	#00h
00:010E 00 E2                    1071   	mov	er2,	#0 
00:0110 6E-F0                    1072   	push	xr0
00:0112 00'00                    1073   	mov	r0,	#BYTE1 OFFSET $$S59
00:0114 00'01                    1074   	mov	r1,	#BYTE2 OFFSET $$S59
00:0116 5E-F0                    1075   	push	er0
00:0118 01-F0'00-00'             1076   	bl	_printf_n
00:011C 06 E1                    1077   	add	sp,	#6 
                                 1078   
                                 1079   ;;			FlashLEDs();
                                 1080   CLINEA 0000H 0001H 0286H 0004H 000FH
00:011E 01-F0'00-00'             1081   	bl	_FlashLEDs
                                 1082   
                                 1083   ;;			break;
                                 1084   CLINEA 0000H 0001H 0287H 0004H 0009H
00:0122 00-F0'00-00'             1085   	b	_$L37
                                 1086   CBLOCKEND 237 4 648
                                 1087   CBLOCKEND 237 1 655
                                 1088   CFUNCTIONEND 237
                                 1089   
                                 1090   
  --------------------------     1091   	rseg $$Initialization$main
                                 1092   CFUNCTION 180
                                 1093   
00:0000                          1094   _Initialization	:
                                 1095   CBLOCK 180 1 667
                                 1096   
                                 1097   ;;static void Initialization(void){
                                 1098   CLINEA 0000H 0001H 029BH 0001H 0021H
00:0000 CE-F8                    1099   	push	lr
                                 1100   CBLOCK 180 2 667
                                 1101   CRET 0000H
                                 1102   
                                 1103   ;;	DSIO0 = 1; // 0=> Enables Synchronous Serial Port 0 (initial value).
                                 1104   CLINEA 0000H 0001H 029FH 0002H 0045H
00:0002 80-A0 2A-F0              1105   	sb	0f02ah.0
                                 1106   
                                 1107   ;;	DUA0  = 0; // 0=> Enables the operation of UART0 (initial value).
                                 1108   CLINEA 0000H 0001H 02A0H 0002H 0042H
00:0006 A2-A0 2A-F0              1109   	rb	0f02ah.2
                                 1110   
                                 1111   ;;	DUA1  = 1; // 0=> Enables Uart1 (initial value). 
                                 1112   CLINEA 0000H 0001H 02A1H 0002H 0032H
00:000A B0-A0 2A-F0              1113   	sb	0f02ah.3
                                 1114   
                                 1115   ;;	DI2C1 = 1; // 0=> Enables I2C bus Interface (Slave) (initial value).
                                 1116   CLINEA 0000H 0001H 02A2H 0002H 0045H
00:000E E0-A0 2A-F0              1117   	sb	0f02ah.6
                                 1118   
                                 1119   ;;	DI2C0 = 0; // 0=> Enables I2C bus Interface (Master) (initial value).	
                                 1120   CLINEA 0000H 0001H 02A3H 0002H 0047H
00:0012 F2-A0 2A-F0              1121   	rb	0f02ah.7
                                 1122   
                                 1123   ;;	BLKCON4 = 0x00; // 0=> Enables SA-ADC
                                 1124   CLINEA 0000H 0001H 02A5H 0002H 0026H
00:0016 00 00                    1125   	mov	r0,	#00h
00:0018 11-90 2C-F0              1126   	st	r0,	0f02ch
                                 1127   
                                 1128   ;;	BLKCON6 = 0x00; // (1=disables; 0=enables) the operation of Timers 8, 9, A, E, F.
                                 1129   CLINEA 0000H 0001H 02A6H 0002H 0052H
00:001C 11-90 2E-F0              1130   	st	r0,	0f02eh
                                 1131   
                                 1132   ;;	BLKCON7 = 0x0F; // (1=disables; 0=enables) the operation of PWM (PWMC, PWMD, PWME, PWMF
                                 1133   CLINEA 0000H 0001H 02A7H 0002H 0058H
00:0020 0F 00                    1134   	mov	r0,	#0fh
00:0022 11-90 2F-F0              1135   	st	r0,	0f02fh
                                 1136   
                                 1137   ;;	PortA_Low();	//Initialize all 3 Ports of Port A to GPIO-Low
                                 1138   CLINEA 0000H 0001H 02AAH 0002H 003CH
00:0026 01-F0'00-00'             1139   	bl	_PortA_Low
                                 1140   
                                 1141   ;;	PortB_Low();	//Initialize all 8 Ports of Port B to GPIO-Low
                                 1142   CLINEA 0000H 0001H 02ABH 0002H 003CH
00:002A 01-F0'00-00'             1143   	bl	_PortB_Low
                                 1144   
                                 1145   ;;	PortC_Low();	//Initialize all 8 Ports of Port C to GPIO-Low
                                 1146   CLINEA 0000H 0001H 02ACH 0002H 003CH
00:002E 01-F0'00-00'             1147   	bl	_PortC_Low
                                 1148   
                                 1149   ;;	PortD_Low();	//Initialize all 6 Ports of Port D to input GPIO
                                 1150   CLINEA 0000H 0001H 02ADH 0002H 003EH
00:0032 01-F0'00-00'             1151   	bl	_PortD_Low
                                 1152   
                                 1153   ;;    SetOSC();
                                 1154   CLINEA 0000H 0001H 02B0H 0005H 000DH
00:0036 01-F0'00-00'             1155   	bl	_SetOSC
                                 1156   
                                 1157   ;;	PA0DIR = 1;
                                 1158   CLINEA 0000H 0001H 02B3H 0002H 000CH
00:003A 80-A0 51-F2              1159   	sb	0f251h.0
                                 1160   
                                 1161   ;;	PA1DIR = 1;		//GPIO Input
                                 1162   CLINEA 0000H 0001H 02B4H 0002H 001AH
00:003E 90-A0 51-F2              1163   	sb	0f251h.1
                                 1164   
                                 1165   ;;	SACH0 = 1;		//This enables the ADC Channel 0 from A0 Pin
                                 1166   CLINEA 0000H 0001H 02B5H 0002H 0039H
00:0042 80-A0 F2-F2              1167   	sb	0f2f2h.0
                                 1168   
                                 1169   ;;	SACH1 = 1;		//This enables the ADC Channel 1 from A1 Pin
                                 1170   CLINEA 0000H 0001H 02B6H 0002H 0039H
00:0046 90-A0 F2-F2              1171   	sb	0f2f2h.1
                                 1172   
                                 1173   ;;	SALP = 0;		//Single Read or Continuous Read... Single = 0, Consecutive = 1
                                 1174   CLINEA 0000H 0001H 02B7H 0002H 004BH
00:004A 82-A0 F0-F2              1175   	rb	0f2f0h.0
                                 1176   
                                 1177   ;;	irq_di();	// Disable Interrupts
                                 1178   CLINEA 0000H 0001H 02BBH 0002H 0020H
00:004E 01-F0'00-00'             1179   	bl	_irq_di
                                 1180   
                                 1181   ;;	irq_init();	// Initialize Interrupts (All Off and NO Requests)
                                 1182   CLINEA 0000H 0001H 02BCH 0002H 003FH
00:0052 01-F0'00-00'             1183   	bl	_irq_init
                                 1184   
                                 1185   ;;	IE0 = IE1 = IE2 = IE3 = IE4 = IE5 = IE6 = IE7 = 0;
                                 1186   CLINEA 0000H 0001H 02BFH 0002H 0033H
00:0056 00 00                    1187   	mov	r0,	#00h
00:0058 11-90 17-F0              1188   	st	r0,	0f017h
00:005C 11-90 16-F0              1189   	st	r0,	0f016h
00:0060 11-90 15-F0              1190   	st	r0,	0f015h
00:0064 11-90 14-F0              1191   	st	r0,	0f014h
00:0068 11-90 13-F0              1192   	st	r0,	0f013h
00:006C 11-90 12-F0              1193   	st	r0,	0f012h
00:0070 11-90 11-F0              1194   	st	r0,	0f011h
00:0074 11-90 10-F0              1195   	st	r0,	0f010h
                                 1196   
                                 1197   ;;	IRQ0 = IRQ1 = IRQ2 = IRQ3 = IRQ4 = IRQ5 = IRQ6 = IRQ7 = 0;
                                 1198   CLINEA 0000H 0001H 02C1H 0002H 003BH
00:0078 11-90 1F-F0              1199   	st	r0,	0f01fh
00:007C 11-90 1E-F0              1200   	st	r0,	0f01eh
00:0080 11-90 1D-F0              1201   	st	r0,	0f01dh
00:0084 11-90 1C-F0              1202   	st	r0,	0f01ch
00:0088 11-90 1B-F0              1203   	st	r0,	0f01bh
00:008C 11-90 1A-F0              1204   	st	r0,	0f01ah
00:0090 11-90 19-F0              1205   	st	r0,	0f019h
00:0094 11-90 18-F0              1206   	st	r0,	0f018h
                                 1207   
                                 1208   ;;	E2H = 0;	// E2H is the Enable flag for 2Hz TBC Interrupt (1=ENABLED)
                                 1209   CLINEA 0000H 0001H 02C3H 0002H 0045H
00:0098 B2-A0 17-F0              1210   	rb	0f017h.3
                                 1211   
                                 1212   ;;	irq_setHdr((unsigned char)IRQ_NO_UA0INT, _intUart);
                                 1213   CLINEA 0000H 0001H 02C5H 0002H 0034H
00:009C 00'02                    1214   	mov	r2,	#BYTE1 OFFSET __intUart
00:009E 00'03                    1215   	mov	r3,	#BYTE2 OFFSET __intUart
00:00A0 0F 00                    1216   	mov	r0,	#0fh
00:00A2 01-F0'00-00'             1217   	bl	_irq_setHdr
                                 1218   
                                 1219   ;;	EUA0 = 1; 	// EUA0 is the enable flag for the UART0 interrupt (1=ENABLED)
                                 1220   CLINEA 0000H 0001H 02C6H 0002H 004AH
00:00A6 80-A0 14-F0              1221   	sb	0f014h.0
                                 1222   
                                 1223   ;;	irq_setHdr((unsigned char)IRQ_NO_I2CMINT, _intI2c);
                                 1224   CLINEA 0000H 0001H 02C8H 0002H 0034H
00:00AA 00'02                    1225   	mov	r2,	#BYTE1 OFFSET __intI2c
00:00AC 00'03                    1226   	mov	r3,	#BYTE2 OFFSET __intI2c
00:00AE 0C 00                    1227   	mov	r0,	#0ch
00:00B0 01-F0'00-00'             1228   	bl	_irq_setHdr
                                 1229   
                                 1230   ;;	EI2CM = 1;
                                 1231   CLINEA 0000H 0001H 02C9H 0002H 000BH
00:00B4 F0-A0 12-F0              1232   	sb	0f012h.7
                                 1233   
                                 1234   ;;	QI2CM = 0;
                                 1235   CLINEA 0000H 0001H 02CAH 0002H 000BH
00:00B8 F2-A0 1A-F0              1236   	rb	0f01ah.7
                                 1237   
                                 1238   ;;	irq_setHdr((unsigned char)IRQ_NO_SADINT, _intADC);
                                 1239   CLINEA 0000H 0001H 02CDH 0002H 0033H
00:00BC 00'02                    1240   	mov	r2,	#BYTE1 OFFSET __intADC
00:00BE 00'03                    1241   	mov	r3,	#BYTE2 OFFSET __intADC
00:00C0 0A 00                    1242   	mov	r0,	#0ah
00:00C2 01-F0'00-00'             1243   	bl	_irq_setHdr
                                 1244   
                                 1245   ;;	ESAD = 1;
                                 1246   CLINEA 0000H 0001H 02CEH 0002H 000AH
00:00C6 A0-A0 12-F0              1247   	sb	0f012h.2
                                 1248   
                                 1249   ;;	QSAD = 0;
                                 1250   CLINEA 0000H 0001H 02CFH 0002H 000AH
00:00CA A2-A0 1A-F0              1251   	rb	0f01ah.2
                                 1252   
                                 1253   ;;	irq_ei(); // Enable Interrupts
                                 1254   CLINEA 0000H 0001H 02DBH 0002H 001FH
00:00CE 01-F0'00-00'             1255   	bl	_irq_ei
                                 1256   
                                 1257   ;;	WDTMOD = 0x01; 	
                                 1258   CLINEA 0000H 0001H 02E7H 0002H 0011H
00:00D2 01 00                    1259   	mov	r0,	#01h
00:00D4 11-90 0F-F0              1260   	st	r0,	0f00fh
                                 1261   
                                 1262   ;;	main_clrWDT(); 	// Clear WDT
                                 1263   CLINEA 0000H 0001H 02E8H 0002H 001DH
00:00D8 01-F0'00-00'             1264   	bl	_main_clrWDT
                                 1265   
                                 1266   ;;	i2c_init(I2C_MOD_FST, (unsigned short)HSCLK_KHZ, I2C_SYN_OFF);
                                 1267   CLINEA 0000H 0001H 02EEH 0002H 003FH
00:00DC 00 00                    1268   	mov	r0,	#00h
00:00DE 4E-F0                    1269   	push	r0
00:00E0 40 02                    1270   	mov	r2,	#040h
00:00E2 1F 03                    1271   	mov	r3,	#01fh
00:00E4 01 00                    1272   	mov	r0,	#01h
00:00E6 01-F0'00-00'             1273   	bl	_i2c_init
00:00EA 02 E1                    1274   	add	sp,	#2 
                                 1275   
                                 1276   ;;			   &_uartSetParam );				/* Param... 	 */
                                 1277   CLINEA 0000H 0001H 02F3H 0007H 002BH
00:00EC 00'00                    1278   	mov	r0,	#BYTE1 OFFSET __uartSetParam
00:00EE 00'01                    1279   	mov	r1,	#BYTE2 OFFSET __uartSetParam
00:00F0 5E-F0                    1280   	push	er0
00:00F2 40 02                    1281   	mov	r2,	#040h
00:00F4 1F 03                    1282   	mov	r3,	#01fh
00:00F6 02 00                    1283   	mov	r0,	#02h
00:00F8 01-F0'00-00'             1284   	bl	_uart_init
00:00FC 02 E1                    1285   	add	sp,	#2 
                                 1286   
                                 1287   ;;	uart_PortSet();
                                 1288   CLINEA 0000H 0001H 02F4H 0002H 0010H
00:00FE 01-F0'00-00'             1289   	bl	_uart_PortSet
                                 1290   CBLOCKEND 180 2 760
                                 1291   
                                 1292   ;;}//End Initialization
                                 1293   CLINEA 0000H 0001H 02F8H 0001H 0015H
00:0102 8E-F2                    1294   	pop	pc
                                 1295   CBLOCKEND 180 1 760
                                 1296   CFUNCTIONEND 180
                                 1297   
                                 1298   
  --------------------------     1299   	rseg $$write$main
                                 1300   CFUNCTION 186
                                 1301   
00:0000                          1302   _write	:
                                 1303   CBLOCK 186 1 774
                                 1304   
                                 1305   ;;{
                                 1306   CLINEA 0000H 0001H 0306H 0001H 0001H
00:0000 CE-F8                    1307   	push	lr
00:0002 5E-FE                    1308   	push	fp
00:0004 1A-AE                    1309   	mov	fp,	sp
00:0006 5E-FA                    1310   	push	er10
00:0008 25-FA                    1311   	mov	er10,	er2
                                 1312   CBLOCK 186 2 774
                                 1313   CRET 0004H
                                 1314   CARGUMENT 47H 0002H 0000H "handle" 02H 00H 01H
                                 1315   CARGUMENT 46H 0002H 0029H "buffer" 04H 03H 00H 00H 00H
                                 1316   CARGUMENT 42H 0002H 0004H "len" 02H 00H 01H
                                 1317   
                                 1318   ;;	_flgUartFin = 0; 
                                 1319   CLINEA 0000H 0001H 0307H 0002H 0012H
00:000A 00 00                    1320   	mov	r0,	#00h
00:000C 11-90 00-00'             1321   	st	r0,	NEAR __flgUartFin
                                 1322   
                                 1323   ;;	uart_stop();
                                 1324   CLINEA 0000H 0001H 0308H 0002H 000DH
00:0010 01-F0'00-00'             1325   	bl	_uart_stop
                                 1326   
                                 1327   ;;	uart_startSend(buffer, len, _funcUartFin); 
                                 1328   CLINEA 0000H 0001H 0309H 0002H 002CH
00:0014 00'00                    1329   	mov	r0,	#BYTE1 OFFSET __funcUartFin
00:0016 00'01                    1330   	mov	r1,	#BYTE2 OFFSET __funcUartFin
00:0018 5E-F0                    1331   	push	er0
00:001A 44 B2                    1332   	l	er2,	4[fp]
00:001C A5-F0                    1333   	mov	er0,	er10
00:001E 01-F0'00-00'             1334   	bl	_uart_startSend
00:0022 02 E1                    1335   	add	sp,	#2 
                                 1336   
                                 1337   ;;	while(_flgUartFin != 1)
                                 1338   CLINEA 0000H 0000H 030AH 0001H 0001H
00:0024 02 CE                    1339   	bal	_$L66
                                 1340   
                                 1341   ;;	while(_flgUartFin != 1)
                                 1342   CLINEA 0000H 0000H 030AH 0002H 0018H
00:0026                          1343   _$L64 :
                                 1344   CBLOCK 186 3 779
                                 1345   
                                 1346   ;;		main_clrWDT();
                                 1347   CLINEA 0000H 0001H 030CH 0003H 0010H
00:0026 01-F0'00-00'             1348   	bl	_main_clrWDT
                                 1349   CBLOCKEND 186 3 781
                                 1350   
                                 1351   ;;	while(_flgUartFin != 1)
                                 1352   CLINEA 0000H 0000H 030AH 0001H 0001H
00:002A                          1353   _$L66 :
00:002A 10-90 00-00'             1354   	l	r0,	NEAR __flgUartFin
00:002E 01 70                    1355   	cmp	r0,	#01h
00:0030 FA C8                    1356   	bne	_$L64
                                 1357   
                                 1358   ;;	return len;
                                 1359   CLINEA 0000H 0001H 030EH 0002H 000CH
00:0032 44 B0                    1360   	l	er0,	4[fp]
                                 1361   CBLOCKEND 186 2 783
                                 1362   
                                 1363   ;;}
                                 1364   CLINEA 0000H 0000H 030FH 0001H 0001H
00:0034 1E-FA                    1365   	pop	er10
00:0036 EA-A1                    1366   	mov	sp,	fp
00:0038 1E-FE                    1367   	pop	fp
00:003A 8E-F2                    1368   	pop	pc
                                 1369   CBLOCKEND 186 1 783
                                 1370   CFUNCTIONEND 186
                                 1371   
                                 1372   
  --------------------------     1373   	rseg $$ADC_Read$main
                                 1374   CFUNCTION 187
                                 1375   
00:0000                          1376   _ADC_Read	:
                                 1377   CBLOCK 187 1 794
                                 1378   
                                 1379   ;;{
                                 1380   CLINEA 0000H 0001H 031AH 0001H 0001H
00:0000 CE-F8                    1381   	push	lr
00:0002 5E-F8                    1382   	push	er8
00:0004 00-88                    1383   	mov	r8,	r0
                                 1384   CBLOCK 187 2 794
                                 1385   CRET 0002H
                                 1386   CARGUMENT 46H 0001H 001CH "idx" 02H 00H 00H
                                 1387   
                                 1388   ;;	_flgADCFin = 0;
                                 1389   CLINEA 0000H 0001H 031BH 0002H 0010H
00:0006 00 00                    1390   	mov	r0,	#00h
00:0008 11-90 00-00'             1391   	st	r0,	NEAR __flgADCFin
                                 1392   
                                 1393   ;;	SADMOD0 = (unsigned char)(1<<idx);
                                 1394   CLINEA 0000H 0001H 031CH 0002H 0023H
00:000C 01 E0                    1395   	mov	er0,	#1 
00:000E 80-82                    1396   	mov	r2,	r8
00:0010                          1397   _$M8 :
00:0010 07 72                    1398   	cmp	r2,	#07h
00:0012 04 C3                    1399   	ble	_$M7
00:0014 7B-91                    1400   	sllc	r1,	#07h
00:0016 7A-90                    1401   	sll	r0,	#07h
00:0018 F9 12                    1402   	add	r2,	#0f9h
00:001A FA C8                    1403   	bne	_$M8
00:001C                          1404   _$M7 :
00:001C 2A-80                    1405   	sll	r0,	r2
00:001E 11-90 F2-F2              1406   	st	r0,	0f2f2h
                                 1407   
                                 1408   ;;	SARUN = 1;
                                 1409   CLINEA 0000H 0001H 031DH 0002H 000BH
00:0022 80-A0 F1-F2              1410   	sb	0f2f1h.0
                                 1411   
                                 1412   ;;	while(_flgADCFin == 0)
                                 1413   CLINEA 0000H 0000H 031EH 0001H 0001H
00:0026 02 CE                    1414   	bal	_$L85
                                 1415   
                                 1416   ;;	while(_flgADCFin == 0)
                                 1417   CLINEA 0000H 0000H 031EH 0002H 0017H
00:0028                          1418   _$L70 :
                                 1419   CBLOCK 187 3 799
                                 1420   
                                 1421   ;;		main_clrWDT();
                                 1422   CLINEA 0000H 0001H 0320H 0003H 0010H
00:0028 01-F0'00-00'             1423   	bl	_main_clrWDT
                                 1424   CBLOCKEND 187 3 801
                                 1425   
                                 1426   ;;	while(_flgADCFin == 0)
                                 1427   CLINEA 0000H 0000H 031EH 0001H 0001H
00:002C                          1428   _$L85 :
00:002C 10-90 00-00'             1429   	l	r0,	NEAR __flgADCFin
00:0030 FB C9                    1430   	beq	_$L70
                                 1431   
                                 1432   ;;	switch(idx)
                                 1433   CLINEA 0000H 0001H 0322H 0002H 000CH
00:0032 80-80                    1434   	mov	r0,	r8
00:0034 00 01                    1435   	mov	r1,	#00h
                                 1436   CBLOCK 187 4 803
00:0036 07 78                    1437   	cmp	r8,	#07h
00:0038 00 51                    1438   	cmpc	r1,	#00h
00:003A 02 C3                    1439   	ble	_$M10
00:003C 00-F0'00-00'             1440   	b	_$L76
00:0040                          1441   _$M10 :
00:0040 1B-91                    1442   	sllc	r1,	#01h
00:0042 1A-90                    1443   	sll	r0,	#01h
00:0044 08-A0 00-00'             1444   	l	er0,	NEAR _$M9[er0]
00:0048 02-F0                    1445   	b	er0
                                 1446   
                                 1447   ;;	}
                                 1448   CBLOCKEND 187 2 814
                                 1449   
                                 1450   ;;}
                                 1451   CLINEA 0000H 0001H 032EH 0001H 0001H
00:004A                          1452   _$L67 :
00:004A 1E-F8                    1453   	pop	er8
00:004C 8E-F2                    1454   	pop	pc
                                 1455   
                                 1456   ;;		case 0:		return (SADR0H<<2|SADR0L>>6);
                                 1457   CLINEA 0000H 0001H 0324H 0003H 0028H
00:004E                          1458   _$S77 :
00:004E 10-90 D1-F2              1459   	l	r0,	0f2d1h
00:0052 00 01                    1460   	mov	r1,	#00h
00:0054 2B-91                    1461   	sllc	r1,	#02h
00:0056 2A-90                    1462   	sll	r0,	#02h
00:0058 10-92 D0-F2              1463   	l	r2,	0f2d0h
00:005C 00 03                    1464   	mov	r3,	#00h
00:005E 6D-92                    1465   	srlc	r2,	#06h
00:0060 6E-93                    1466   	sra	r3,	#06h
00:0062 03-82                    1467   	or	r2,	r0
00:0064 13-83                    1468   	or	r3,	r1
00:0066 25-F0                    1469   	mov	er0,	er2
00:0068 F0 CE                    1470   	bal	_$L67
                                 1471   
                                 1472   ;;		case 1:		return (SADR1H<<2|SADR1L>>6);
                                 1473   CLINEA 0000H 0001H 0325H 0003H 0028H
00:006A                          1474   _$S78 :
00:006A 10-90 D3-F2              1475   	l	r0,	0f2d3h
00:006E 00 01                    1476   	mov	r1,	#00h
00:0070 2B-91                    1477   	sllc	r1,	#02h
00:0072 2A-90                    1478   	sll	r0,	#02h
00:0074 10-92 D2-F2              1479   	l	r2,	0f2d2h
00:0078 00 03                    1480   	mov	r3,	#00h
00:007A 6D-92                    1481   	srlc	r2,	#06h
00:007C 6E-93                    1482   	sra	r3,	#06h
00:007E 03-82                    1483   	or	r2,	r0
00:0080 13-83                    1484   	or	r3,	r1
00:0082 25-F0                    1485   	mov	er0,	er2
00:0084 E2 CE                    1486   	bal	_$L67
                                 1487   
                                 1488   ;;		case 2:		return (SADR2H<<2|SADR2L>>6);
                                 1489   CLINEA 0000H 0001H 0326H 0003H 0028H
00:0086                          1490   _$S79 :
00:0086 10-90 D5-F2              1491   	l	r0,	0f2d5h
00:008A 00 01                    1492   	mov	r1,	#00h
00:008C 2B-91                    1493   	sllc	r1,	#02h
00:008E 2A-90                    1494   	sll	r0,	#02h
00:0090 10-92 D4-F2              1495   	l	r2,	0f2d4h
00:0094 00 03                    1496   	mov	r3,	#00h
00:0096 6D-92                    1497   	srlc	r2,	#06h
00:0098 6E-93                    1498   	sra	r3,	#06h
00:009A 03-82                    1499   	or	r2,	r0
00:009C 13-83                    1500   	or	r3,	r1
00:009E 25-F0                    1501   	mov	er0,	er2
00:00A0 D4 CE                    1502   	bal	_$L67
                                 1503   
                                 1504   ;;		case 3:		return (SADR3H<<2|SADR3L>>6);
                                 1505   CLINEA 0000H 0001H 0327H 0003H 0028H
00:00A2                          1506   _$S80 :
00:00A2 10-90 D7-F2              1507   	l	r0,	0f2d7h
00:00A6 00 01                    1508   	mov	r1,	#00h
00:00A8 2B-91                    1509   	sllc	r1,	#02h
00:00AA 2A-90                    1510   	sll	r0,	#02h
00:00AC 10-92 D6-F2              1511   	l	r2,	0f2d6h
00:00B0 00 03                    1512   	mov	r3,	#00h
00:00B2 6D-92                    1513   	srlc	r2,	#06h
00:00B4 6E-93                    1514   	sra	r3,	#06h
00:00B6 03-82                    1515   	or	r2,	r0
00:00B8 13-83                    1516   	or	r3,	r1
00:00BA 25-F0                    1517   	mov	er0,	er2
00:00BC C6 CE                    1518   	bal	_$L67
                                 1519   
                                 1520   ;;		case 4:		return (SADR4H<<2|SADR4L>>6);
                                 1521   CLINEA 0000H 0001H 0328H 0003H 0028H
00:00BE                          1522   _$S81 :
00:00BE 10-90 D9-F2              1523   	l	r0,	0f2d9h
00:00C2 00 01                    1524   	mov	r1,	#00h
00:00C4 2B-91                    1525   	sllc	r1,	#02h
00:00C6 2A-90                    1526   	sll	r0,	#02h
00:00C8 10-92 D8-F2              1527   	l	r2,	0f2d8h
00:00CC 00 03                    1528   	mov	r3,	#00h
00:00CE 6D-92                    1529   	srlc	r2,	#06h
00:00D0 6E-93                    1530   	sra	r3,	#06h
00:00D2 03-82                    1531   	or	r2,	r0
00:00D4 13-83                    1532   	or	r3,	r1
00:00D6 25-F0                    1533   	mov	er0,	er2
00:00D8 00-F0'00-00'             1534   	b	_$L67
                                 1535   
                                 1536   ;;		case 5:		return (SADR5H<<2|SADR5L>>6);
                                 1537   CLINEA 0000H 0001H 0329H 0003H 0028H
00:00DC                          1538   _$S82 :
00:00DC 10-90 DB-F2              1539   	l	r0,	0f2dbh
00:00E0 00 01                    1540   	mov	r1,	#00h
00:00E2 2B-91                    1541   	sllc	r1,	#02h
00:00E4 2A-90                    1542   	sll	r0,	#02h
00:00E6 10-92 DA-F2              1543   	l	r2,	0f2dah
00:00EA 00 03                    1544   	mov	r3,	#00h
00:00EC 6D-92                    1545   	srlc	r2,	#06h
00:00EE 6E-93                    1546   	sra	r3,	#06h
00:00F0 03-82                    1547   	or	r2,	r0
00:00F2 13-83                    1548   	or	r3,	r1
00:00F4 25-F0                    1549   	mov	er0,	er2
00:00F6 00-F0'00-00'             1550   	b	_$L67
                                 1551   
                                 1552   ;;		case 6:		return (SADR6H<<2|SADR6L>>6);
                                 1553   CLINEA 0000H 0001H 032AH 0003H 0028H
00:00FA                          1554   _$S83 :
00:00FA 10-90 DD-F2              1555   	l	r0,	0f2ddh
00:00FE 00 01                    1556   	mov	r1,	#00h
00:0100 2B-91                    1557   	sllc	r1,	#02h
00:0102 2A-90                    1558   	sll	r0,	#02h
00:0104 10-92 DC-F2              1559   	l	r2,	0f2dch
00:0108 00 03                    1560   	mov	r3,	#00h
00:010A 6D-92                    1561   	srlc	r2,	#06h
00:010C 6E-93                    1562   	sra	r3,	#06h
00:010E 03-82                    1563   	or	r2,	r0
00:0110 13-83                    1564   	or	r3,	r1
00:0112 25-F0                    1565   	mov	er0,	er2
00:0114 00-F0'00-00'             1566   	b	_$L67
                                 1567   
                                 1568   ;;		case 7:		return (SADR7H<<2|SADR7L>>6);
                                 1569   CLINEA 0000H 0001H 032BH 0003H 0028H
00:0118                          1570   _$S84 :
00:0118 10-90 DF-F2              1571   	l	r0,	0f2dfh
00:011C 00 01                    1572   	mov	r1,	#00h
00:011E 2B-91                    1573   	sllc	r1,	#02h
00:0120 2A-90                    1574   	sll	r0,	#02h
00:0122 10-92 DE-F2              1575   	l	r2,	0f2deh
00:0126 00 03                    1576   	mov	r3,	#00h
00:0128 6D-92                    1577   	srlc	r2,	#06h
00:012A 6E-93                    1578   	sra	r3,	#06h
00:012C 03-82                    1579   	or	r2,	r0
00:012E 13-83                    1580   	or	r3,	r1
00:0130 25-F0                    1581   	mov	er0,	er2
00:0132 00-F0'00-00'             1582   	b	_$L67
                                 1583   
                                 1584   ;;		default:	return 0;
                                 1585   CLINEA 0000H 0001H 032CH 0003H 0014H
00:0136                          1586   _$L76 :
00:0136 00 E0                    1587   	mov	er0,	#0 
00:0138 00-F0'00-00'             1588   	b	_$L67
                                 1589   CBLOCKEND 187 4 813
                                 1590   CBLOCKEND 187 1 814
                                 1591   CFUNCTIONEND 187
                                 1592   
                                 1593   
  --------------------------     1594   	rseg $$I2C_Read$main
                                 1595   CFUNCTION 188
                                 1596   
00:0000                          1597   _I2C_Read	:
                                 1598   CBLOCK 188 1 829
                                 1599   
                                 1600   ;;{
                                 1601   CLINEA 0000H 0001H 033DH 0001H 0001H
00:0000 CE-F8                    1602   	push	lr
00:0002 5E-FE                    1603   	push	fp
00:0004 1A-AE                    1604   	mov	fp,	sp
00:0006 6E-F8                    1605   	push	xr8
00:0008 25-FA                    1606   	mov	er10,	er2
00:000A 00-88                    1607   	mov	r8,	r0
                                 1608   CBLOCK 188 2 829
                                 1609   CRET 0006H
                                 1610   CARGUMENT 46H 0001H 001CH "slave_address" 02H 00H 00H
                                 1611   CARGUMENT 46H 0002H 0029H "reg_address" 04H 03H 00H 00H 00H
                                 1612   CARGUMENT 42H 0001H 0004H "reg_address_size" 02H 00H 00H
                                 1613   CARGUMENT 42H 0002H 0006H "buffer" 04H 03H 00H 00H 00H
                                 1614   CARGUMENT 42H 0001H 0008H "size" 02H 00H 00H
                                 1615   
                                 1616   ;;	_flgI2CFin = 0;
                                 1617   CLINEA 0000H 0001H 033EH 0002H 0010H
00:000C 00 00                    1618   	mov	r0,	#00h
00:000E 11-90 00-00'             1619   	st	r0,	NEAR __flgI2CFin
                                 1620   
                                 1621   ;;	i2c_stop();	
                                 1622   CLINEA 0000H 0001H 033FH 0002H 000DH
00:0012 01-F0'00-00'             1623   	bl	_i2c_stop
                                 1624   
                                 1625   ;;	i2c_startReceive(slave_address, reg_address, reg_address_size, buffer, size, (cbfI2c)_funcI2CFin);
                                 1626   CLINEA 0000H 0001H 0340H 0002H 0063H
00:0016 00'00                    1627   	mov	r0,	#BYTE1 OFFSET __funcI2CFin
00:0018 00'01                    1628   	mov	r1,	#BYTE2 OFFSET __funcI2CFin
00:001A 5E-F0                    1629   	push	er0
00:001C 48 D0                    1630   	l	r0,	8[fp]
00:001E 00 01                    1631   	mov	r1,	#00h
00:0020 5E-F0                    1632   	push	er0
00:0022 46 B0                    1633   	l	er0,	6[fp]
00:0024 5E-F0                    1634   	push	er0
00:0026 44 D0                    1635   	l	r0,	4[fp]
00:0028 00 01                    1636   	mov	r1,	#00h
00:002A 5E-F0                    1637   	push	er0
00:002C A5-F2                    1638   	mov	er2,	er10
00:002E 80-80                    1639   	mov	r0,	r8
00:0030 01-F0'00-00'             1640   	bl	_i2c_startReceive
00:0034 08 E1                    1641   	add	sp,	#8 
                                 1642   
                                 1643   ;;	while(_flgI2CFin != 1)
                                 1644   CLINEA 0000H 0000H 0341H 0001H 0001H
00:0036 02 CE                    1645   	bal	_$L91
                                 1646   
                                 1647   ;;	while(_flgI2CFin != 1)
                                 1648   CLINEA 0000H 0000H 0341H 0002H 0017H
00:0038                          1649   _$L89 :
                                 1650   CBLOCK 188 3 834
                                 1651   
                                 1652   ;;		main_clrWDT();
                                 1653   CLINEA 0000H 0001H 0343H 0003H 0010H
00:0038 01-F0'00-00'             1654   	bl	_main_clrWDT
                                 1655   CBLOCKEND 188 3 836
                                 1656   
                                 1657   ;;	while(_flgI2CFin != 1)
                                 1658   CLINEA 0000H 0000H 0341H 0001H 0001H
00:003C                          1659   _$L91 :
00:003C 10-90 00-00'             1660   	l	r0,	NEAR __flgI2CFin
00:0040 01 70                    1661   	cmp	r0,	#01h
00:0042 FA C8                    1662   	bne	_$L89
                                 1663   CBLOCKEND 188 2 837
                                 1664   
                                 1665   ;;}
                                 1666   CLINEA 0000H 0001H 0345H 0001H 0001H
00:0044 2E-F8                    1667   	pop	xr8
00:0046 EA-A1                    1668   	mov	sp,	fp
00:0048 1E-FE                    1669   	pop	fp
00:004A 8E-F2                    1670   	pop	pc
                                 1671   CBLOCKEND 188 1 837
                                 1672   CFUNCTIONEND 188
                                 1673   
                                 1674   
  --------------------------     1675   	rseg $$I2C_Write$main
                                 1676   CFUNCTION 189
                                 1677   
00:0000                          1678   _I2C_Write	:
                                 1679   CBLOCK 189 1 852
                                 1680   
                                 1681   ;;{
                                 1682   CLINEA 0000H 0001H 0354H 0001H 0001H
00:0000 CE-F8                    1683   	push	lr
00:0002 5E-FE                    1684   	push	fp
00:0004 1A-AE                    1685   	mov	fp,	sp
00:0006 6E-F8                    1686   	push	xr8
00:0008 25-FA                    1687   	mov	er10,	er2
00:000A 00-88                    1688   	mov	r8,	r0
                                 1689   CBLOCK 189 2 852
                                 1690   CRET 0006H
                                 1691   CARGUMENT 46H 0001H 001CH "slave_address" 02H 00H 00H
                                 1692   CARGUMENT 46H 0002H 0029H "reg_address" 04H 03H 00H 00H 00H
                                 1693   CARGUMENT 42H 0001H 0004H "reg_address_size" 02H 00H 00H
                                 1694   CARGUMENT 42H 0002H 0006H "buffer" 04H 03H 00H 00H 00H
                                 1695   CARGUMENT 42H 0001H 0008H "size" 02H 00H 00H
                                 1696   
                                 1697   ;;	_flgI2CFin = 0;
                                 1698   CLINEA 0000H 0001H 0355H 0002H 0010H
00:000C 00 00                    1699   	mov	r0,	#00h
00:000E 11-90 00-00'             1700   	st	r0,	NEAR __flgI2CFin
                                 1701   
                                 1702   ;;	i2c_stop();	
                                 1703   CLINEA 0000H 0001H 0356H 0002H 000DH
00:0012 01-F0'00-00'             1704   	bl	_i2c_stop
                                 1705   
                                 1706   ;;	i2c_startSend(slave_address, reg_address, reg_address_size, buffer, size, (cbfI2c)_funcI2CFin);
                                 1707   CLINEA 0000H 0001H 0357H 0002H 0060H
00:0016 00'00                    1708   	mov	r0,	#BYTE1 OFFSET __funcI2CFin
00:0018 00'01                    1709   	mov	r1,	#BYTE2 OFFSET __funcI2CFin
00:001A 5E-F0                    1710   	push	er0
00:001C 48 D0                    1711   	l	r0,	8[fp]
00:001E 00 01                    1712   	mov	r1,	#00h
00:0020 5E-F0                    1713   	push	er0
00:0022 46 B0                    1714   	l	er0,	6[fp]
00:0024 5E-F0                    1715   	push	er0
00:0026 44 D0                    1716   	l	r0,	4[fp]
00:0028 00 01                    1717   	mov	r1,	#00h
00:002A 5E-F0                    1718   	push	er0
00:002C A5-F2                    1719   	mov	er2,	er10
00:002E 80-80                    1720   	mov	r0,	r8
00:0030 01-F0'00-00'             1721   	bl	_i2c_startSend
00:0034 08 E1                    1722   	add	sp,	#8 
                                 1723   
                                 1724   ;;	while(_flgI2CFin != 1)
                                 1725   CLINEA 0000H 0000H 0358H 0001H 0001H
00:0036 02 CE                    1726   	bal	_$L97
                                 1727   
                                 1728   ;;	while(_flgI2CFin != 1)
                                 1729   CLINEA 0000H 0000H 0358H 0002H 0017H
00:0038                          1730   _$L95 :
                                 1731   CBLOCK 189 3 857
                                 1732   
                                 1733   ;;		main_clrWDT();
                                 1734   CLINEA 0000H 0001H 035AH 0003H 0010H
00:0038 01-F0'00-00'             1735   	bl	_main_clrWDT
                                 1736   CBLOCKEND 189 3 859
                                 1737   
                                 1738   ;;	while(_flgI2CFin != 1)
                                 1739   CLINEA 0000H 0000H 0358H 0001H 0001H
00:003C                          1740   _$L97 :
00:003C 10-90 00-00'             1741   	l	r0,	NEAR __flgI2CFin
00:0040 01 70                    1742   	cmp	r0,	#01h
00:0042 FA C8                    1743   	bne	_$L95
                                 1744   CBLOCKEND 189 2 860
                                 1745   
                                 1746   ;;}
                                 1747   CLINEA 0000H 0001H 035CH 0001H 0001H
00:0044 2E-F8                    1748   	pop	xr8
00:0046 EA-A1                    1749   	mov	sp,	fp
00:0048 1E-FE                    1750   	pop	fp
00:004A 8E-F2                    1751   	pop	pc
                                 1752   CBLOCKEND 189 1 860
                                 1753   CFUNCTIONEND 189
                                 1754   
                                 1755   
  --------------------------     1756   	rseg $$DeviceSelection$main
                                 1757   CFUNCTION 199
                                 1758   
00:0000                          1759   _DeviceSelection	:
                                 1760   CBLOCK 199 1 872
                                 1761   
                                 1762   ;;{  
                                 1763   CLINEA 0000H 0001H 0368H 0001H 0003H
                                 1764   CBLOCK 199 2 872
                                 1765   
                                 1766   ;;	if(PDD!=SensorPlatformSelection)
                                 1767   CLINEA 0000H 0001H 0375H 0002H 0021H
00:0000 10-90 68-F2              1768   	l	r0,	0f268h
00:0004 10-91 00-00'             1769   	l	r1,	NEAR _SensorPlatformSelection
00:0008 17-80                    1770   	cmp	r0,	r1
00:000A 07 C9                    1771   	beq	_$L99
                                 1772   CBLOCK 199 3 886
                                 1773   
                                 1774   ;;		SensorIntializationFlag = 1;
                                 1775   CLINEA 0000H 0001H 0377H 0003H 001EH
00:000C 01 00                    1776   	mov	r0,	#01h
00:000E 11-90 00-00'             1777   	st	r0,	NEAR _SensorIntializationFlag
                                 1778   
                                 1779   ;;		SensorPlatformSelection = PDD;
                                 1780   CLINEA 0000H 0001H 0378H 0003H 0020H
00:0012 10-90 68-F2              1781   	l	r0,	0f268h
00:0016 11-90 00-00'             1782   	st	r0,	NEAR _SensorPlatformSelection
                                 1783   CBLOCKEND 199 3 889
                                 1784   
                                 1785   ;;	}
                                 1786   CLINEA 0000H 0000H 0379H 0002H 0002H
00:001A                          1787   _$L99 :
                                 1788   CBLOCKEND 199 2 890
                                 1789   
                                 1790   ;;}
                                 1791   CLINEA 0000H 0001H 037AH 0001H 0001H
00:001A 1F-FE                    1792   	rt
                                 1793   CBLOCKEND 199 1 890
                                 1794   CFUNCTIONEND 199
                                 1795   
                                 1796   
  --------------------------     1797   	rseg $$SensorInitialization$main
                                 1798   CFUNCTION 200
                                 1799   
00:0000                          1800   _SensorInitialization	:
                                 1801   CBLOCK 200 1 900
                                 1802   
                                 1803   ;;{  
                                 1804   CLINEA 0000H 0001H 0384H 0001H 0003H
00:0000 CE-F8                    1805   	push	lr
                                 1806   CBLOCK 200 2 900
                                 1807   CRET 0000H
                                 1808   
                                 1809   ;;	switch(SensorPlatformSelection){
                                 1810   CLINEA 0000H 0001H 0385H 0002H 0021H
00:0002 10-90 00-00'             1811   	l	r0,	NEAR _SensorPlatformSelection
00:0006 00 01                    1812   	mov	r1,	#00h
                                 1813   CBLOCK 200 3 901
00:0008 38 70                    1814   	cmp	r0,	#038h
00:000A 00 51                    1815   	cmpc	r1,	#00h
00:000C 09 C2                    1816   	bgt	_$L105
00:000E 01 70                    1817   	cmp	r0,	#01h
00:0010 00 51                    1818   	cmpc	r1,	#00h
00:0012 06 C1                    1819   	blt	_$L105
00:0014 FF E0                    1820   	add	er0,	#-1
00:0016 1B-91                    1821   	sllc	r1,	#01h
00:0018 1A-90                    1822   	sll	r0,	#01h
00:001A 08-A0 00-00'             1823   	l	er0,	NEAR _$M15[er0]
00:001E 02-F0                    1824   	b	er0
                                 1825   
                                 1826   ;;	} 	 
00:0020                          1827   _$L105 :
                                 1828   CBLOCKEND 200 2 969
                                 1829   
                                 1830   ;;}
                                 1831   CLINEA 0000H 0001H 03C9H 0001H 0001H
00:0020 8E-F2                    1832   	pop	pc
                                 1833   
                                 1834   ;;		case 1:
                                 1835   CLINEA 0000H 0001H 0386H 0003H 0009H
00:0022                          1836   _$S107 :
                                 1837   
                                 1838   ;;			Init_Hall_Effect_Sensors_1(); // Refer to function description for list of sensors
                                 1839   CLINEA 0000H 0001H 0387H 0004H 0055H
00:0022 01-F0'00-00'             1840   	bl	_Init_Hall_Effect_Sensors_1
                                 1841   
                                 1842   ;;			break;
                                 1843   CLINEA 0000H 0001H 0388H 0004H 0009H
00:0026 FC CE                    1844   	bal	_$L105
                                 1845   
                                 1846   ;;		case 2:
                                 1847   CLINEA 0000H 0001H 0389H 0003H 0009H
00:0028                          1848   _$S108 :
                                 1849   
                                 1850   ;;			Init_Hall_Effect_Sensors_2(); // Refer to function description for list of sensors 
                                 1851   CLINEA 0000H 0001H 038AH 0004H 0056H
00:0028 01-F0'00-00'             1852   	bl	_Init_Hall_Effect_Sensors_2
                                 1853   
                                 1854   ;;			break;
                                 1855   CLINEA 0000H 0001H 038BH 0004H 0009H
00:002C F9 CE                    1856   	bal	_$L105
                                 1857   
                                 1858   ;;		case 48:			
                                 1859   CLINEA 0000H 0001H 038CH 0003H 000DH
00:002E                          1860   _$S109 :
                                 1861   
                                 1862   ;;			Init_Temperature_Sensor_22();
                                 1863   CLINEA 0000H 0001H 038DH 0004H 0020H
00:002E 01-F0'00-00'             1864   	bl	_Init_Temperature_Sensor_22
                                 1865   
                                 1866   ;;			Init_UV_Sensor_10();
                                 1867   CLINEA 0000H 0001H 038EH 0004H 0017H
00:0032 01-F0'00-00'             1868   	bl	_Init_UV_Sensor_10
                                 1869   
                                 1870   ;;			Init_Hall_Effect_Sensors_2();
                                 1871   CLINEA 0000H 0001H 038FH 0004H 0020H
00:0036 01-F0'00-00'             1872   	bl	_Init_Hall_Effect_Sensors_2
                                 1873   
                                 1874   ;;			Init_KMX61();
                                 1875   CLINEA 0000H 0001H 0390H 0004H 0010H
00:003A 01-F0'00-00'             1876   	bl	_Init_KMX61
                                 1877   
                                 1878   ;;			Init_Pressure_Sensor_3();
                                 1879   CLINEA 0000H 0001H 0391H 0004H 001CH
00:003E 01-F0'00-00'             1880   	bl	_Init_Pressure_Sensor_3
                                 1881   
                                 1882   ;;			Init_ALS_PROX_Sensor_11();
                                 1883   CLINEA 0000H 0001H 0392H 0004H 001DH
00:0042 01-F0'00-00'             1884   	bl	_Init_ALS_PROX_Sensor_11
                                 1885   
                                 1886   ;;			Init_Color_Sensor_4();
                                 1887   CLINEA 0000H 0001H 0393H 0004H 0019H
00:0046 01-F0'00-00'             1888   	bl	_Init_Color_Sensor_4
                                 1889   
                                 1890   ;;			Init_KX022();			
                                 1891   CLINEA 0000H 0001H 0394H 0004H 0013H
00:004A 01-F0'00-00'             1892   	bl	_Init_KX022
                                 1893   
                                 1894   ;;			break;
                                 1895   CLINEA 0000H 0001H 0395H 0004H 0009H
00:004E E8 CE                    1896   	bal	_$L105
                                 1897   
                                 1898   ;;		case 49:
                                 1899   CLINEA 0000H 0001H 0396H 0003H 000AH
00:0050                          1900   _$S110 :
                                 1901   
                                 1902   ;;			Init_Pressure_Sensor_3();
                                 1903   CLINEA 0000H 0001H 0397H 0004H 001CH
00:0050 01-F0'00-00'             1904   	bl	_Init_Pressure_Sensor_3
                                 1905   
                                 1906   ;;			break;
                                 1907   CLINEA 0000H 0001H 0398H 0004H 0009H
00:0054 E5 CE                    1908   	bal	_$L105
                                 1909   
                                 1910   ;;		case 50:
                                 1911   CLINEA 0000H 0001H 0399H 0003H 000AH
00:0056                          1912   _$S111 :
                                 1913   
                                 1914   ;;			Init_Color_Sensor_4();
                                 1915   CLINEA 0000H 0001H 039AH 0004H 0019H
00:0056 01-F0'00-00'             1916   	bl	_Init_Color_Sensor_4
                                 1917   
                                 1918   ;;			break;
                                 1919   CLINEA 0000H 0001H 039BH 0004H 0009H
00:005A E2 CE                    1920   	bal	_$L105
                                 1921   
                                 1922   ;;		case 56:
                                 1923   CLINEA 0000H 0001H 039CH 0003H 000AH
00:005C                          1924   _$S112 :
                                 1925   
                                 1926   ;;			Init_ALS_PROX_Sensor_11();
                                 1927   CLINEA 0000H 0001H 039DH 0004H 001DH
00:005C 01-F0'00-00'             1928   	bl	_Init_ALS_PROX_Sensor_11
                                 1929   
                                 1930   ;;			break;
                                 1931   CLINEA 0000H 0001H 039EH 0004H 0009H
00:0060 DF CE                    1932   	bal	_$L105
                                 1933   
                                 1934   ;;		case 52:
                                 1935   CLINEA 0000H 0001H 039FH 0003H 000AH
00:0062                          1936   _$S113 :
                                 1937   
                                 1938   ;;			Init_KXG03_Sensor_12();
                                 1939   CLINEA 0000H 0001H 03A0H 0004H 001AH
00:0062 01-F0'00-00'             1940   	bl	_Init_KXG03_Sensor_12
                                 1941   
                                 1942   ;;			break;
                                 1943   CLINEA 0000H 0001H 03A1H 0004H 0009H
00:0066 DC CE                    1944   	bal	_$L105
                                 1945   
                                 1946   ;;		case 5: 
                                 1947   CLINEA 0000H 0001H 03A2H 0003H 000AH
00:0068                          1948   _$S114 :
                                 1949   
                                 1950   ;;			Init_Ambient_Light_Sensor_5(); // Refer to function description for list of sensors
                                 1951   CLINEA 0000H 0001H 03A3H 0004H 0056H
00:0068 01-F0'00-00'             1952   	bl	_Init_Ambient_Light_Sensor_5
                                 1953   
                                 1954   ;;			break;
                                 1955   CLINEA 0000H 0001H 03A4H 0004H 0009H
00:006C D9 CE                    1956   	bal	_$L105
                                 1957   
                                 1958   ;;		case 6:
                                 1959   CLINEA 0000H 0001H 03A5H 0003H 0009H
00:006E                          1960   _$S115 :
                                 1961   
                                 1962   ;;			Init_Ambient_Light_Sensor_6(); // Refer to function description for list of sensors 
                                 1963   CLINEA 0000H 0001H 03A6H 0004H 0057H
00:006E 01-F0'00-00'             1964   	bl	_Init_Ambient_Light_Sensor_6
                                 1965   
                                 1966   ;;			break;
                                 1967   CLINEA 0000H 0001H 03A7H 0004H 0009H
00:0072 D6 CE                    1968   	bal	_$L105
                                 1969   
                                 1970   ;;		case 7:
                                 1971   CLINEA 0000H 0001H 03A8H 0003H 0009H
00:0074                          1972   _$S116 :
                                 1973   
                                 1974   ;;			Init_Ambient_Light_Sensor_7(); // Refer to function description for list of sensors 
                                 1975   CLINEA 0000H 0001H 03A9H 0004H 0057H
00:0074 01-F0'00-00'             1976   	bl	_Init_Ambient_Light_Sensor_7
                                 1977   
                                 1978   ;;			break;
                                 1979   CLINEA 0000H 0001H 03AAH 0004H 0009H
00:0078 D3 CE                    1980   	bal	_$L105
                                 1981   
                                 1982   ;;		case 8:
                                 1983   CLINEA 0000H 0001H 03ABH 0003H 0009H
00:007A                          1984   _$S117 :
                                 1985   
                                 1986   ;;			Init_Ambient_Light_Sensor_8(); // Refer to function description for list of sensors 
                                 1987   CLINEA 0000H 0001H 03ACH 0004H 0057H
00:007A 01-F0'00-00'             1988   	bl	_Init_Ambient_Light_Sensor_8
                                 1989   
                                 1990   ;;			break;
                                 1991   CLINEA 0000H 0001H 03ADH 0004H 0009H
00:007E D0 CE                    1992   	bal	_$L105
                                 1993   
                                 1994   ;;		case 9:
                                 1995   CLINEA 0000H 0001H 03AEH 0003H 0009H
00:0080                          1996   _$S118 :
                                 1997   
                                 1998   ;;			Init_Ambient_Light_Sensor_9(); // Refer to function description for list of sensors 
                                 1999   CLINEA 0000H 0001H 03AFH 0004H 0057H
00:0080 01-F0'00-00'             2000   	bl	_Init_Ambient_Light_Sensor_9
                                 2001   
                                 2002   ;;			break;
                                 2003   CLINEA 0000H 0001H 03B0H 0004H 0009H
00:0084 CD CE                    2004   	bal	_$L105
                                 2005   
                                 2006   ;;		case 10:
                                 2007   CLINEA 0000H 0001H 03B1H 0003H 000AH
00:0086                          2008   _$S119 :
                                 2009   
                                 2010   ;;			Init_UV_Sensor_10(); // Refer to function description for list of sensors 
                                 2011   CLINEA 0000H 0001H 03B2H 0004H 004DH
00:0086 01-F0'00-00'             2012   	bl	_Init_UV_Sensor_10
                                 2013   
                                 2014   ;;			break;
                                 2015   CLINEA 0000H 0001H 03B3H 0004H 0009H
00:008A CA CE                    2016   	bal	_$L105
                                 2017   
                                 2018   ;;		case 15:
                                 2019   CLINEA 0000H 0001H 03B4H 0003H 000AH
00:008C                          2020   _$S120 :
                                 2021   
                                 2022   ;;			Init_KX022(); // Refer to function description for list of sensors 
                                 2023   CLINEA 0000H 0001H 03B5H 0004H 0046H
00:008C 01-F0'00-00'             2024   	bl	_Init_KX022
                                 2025   
                                 2026   ;;			break;
                                 2027   CLINEA 0000H 0001H 03B6H 0004H 0009H
00:0090 C7 CE                    2028   	bal	_$L105
                                 2029   
                                 2030   ;;		case 16:
                                 2031   CLINEA 0000H 0001H 03B7H 0003H 000AH
00:0092                          2032   _$S121 :
                                 2033   
                                 2034   ;;			Init_KMX61(); // Refer to function description for list of sensors 
                                 2035   CLINEA 0000H 0001H 03B8H 0004H 0046H
00:0092 01-F0'00-00'             2036   	bl	_Init_KMX61
                                 2037   
                                 2038   ;;			break;
                                 2039   CLINEA 0000H 0001H 03B9H 0004H 0009H
00:0096 C4 CE                    2040   	bal	_$L105
                                 2041   
                                 2042   ;;		case 20:
                                 2043   CLINEA 0000H 0001H 03BAH 0003H 000AH
00:0098                          2044   _$S122 :
                                 2045   
                                 2046   ;;			Init_Temperature_Sensor_20(); // Refer to function description for list of sensors 
                                 2047   CLINEA 0000H 0001H 03BBH 0004H 0056H
00:0098 01-F0'00-00'             2048   	bl	_Init_Temperature_Sensor_20
                                 2049   
                                 2050   ;;			break;
                                 2051   CLINEA 0000H 0001H 03BCH 0004H 0009H
00:009C C1 CE                    2052   	bal	_$L105
                                 2053   
                                 2054   ;;		case 21:
                                 2055   CLINEA 0000H 0001H 03BDH 0003H 000AH
00:009E                          2056   _$S123 :
                                 2057   
                                 2058   ;;			Init_Temperature_Sensor_21(); // Refer to function description for list of sensors
                                 2059   CLINEA 0000H 0001H 03BEH 0004H 0055H
00:009E 01-F0'00-00'             2060   	bl	_Init_Temperature_Sensor_21
                                 2061   
                                 2062   ;;			break;
                                 2063   CLINEA 0000H 0001H 03BFH 0004H 0009H
00:00A2 00-F0'00-00'             2064   	b	_$L105
                                 2065   
                                 2066   ;;		case 22:
                                 2067   CLINEA 0000H 0001H 03C0H 0003H 000AH
00:00A6                          2068   _$S124 :
                                 2069   
                                 2070   ;;			Init_Temperature_Sensor_22(); // Refer to function description for list of sensors 
                                 2071   CLINEA 0000H 0001H 03C1H 0004H 0056H
00:00A6 01-F0'00-00'             2072   	bl	_Init_Temperature_Sensor_22
                                 2073   
                                 2074   ;;			break;
                                 2075   CLINEA 0000H 0001H 03C2H 0004H 0009H
00:00AA 00-F0'00-00'             2076   	b	_$L105
                                 2077   
                                 2078   ;;		case 23:
                                 2079   CLINEA 0000H 0001H 03C3H 0003H 000AH
00:00AE                          2080   _$S125 :
                                 2081   
                                 2082   ;;			Init_Temperature_Sensor_23(); // Refer to function description for list of sensors
                                 2083   CLINEA 0000H 0001H 03C4H 0004H 0055H
00:00AE 01-F0'00-00'             2084   	bl	_Init_Temperature_Sensor_23
                                 2085   
                                 2086   ;;			break; 
                                 2087   CLINEA 0000H 0001H 03C5H 0004H 000AH
00:00B2 00-F0'00-00'             2088   	b	_$L105
                                 2089   
                                 2090   ;;		default:
                                 2091   CLINEA 0000H 0001H 03C6H 0003H 000AH
00:00B6                          2092   _$L106 :
                                 2093   
                                 2094   ;;			break;
                                 2095   CLINEA 0000H 0001H 03C7H 0004H 0009H
00:00B6 00-F0'00-00'             2096   	b	_$L105
                                 2097   CBLOCKEND 200 3 968
                                 2098   CBLOCKEND 200 1 969
                                 2099   CFUNCTIONEND 200
                                 2100   
                                 2101   
  --------------------------     2102   	rseg $$MainOp_Hall_Effect_Sensors_1$main
                                 2103   CFUNCTION 201
                                 2104   
00:0000                          2105   _MainOp_Hall_Effect_Sensors_1	:
                                 2106   CBLOCK 201 1 982
                                 2107   
                                 2108   ;;{
                                 2109   CLINEA 0000H 0001H 03D6H 0001H 0001H
00:0000 CE-F8                    2110   	push	lr
                                 2111   CBLOCK 201 2 982
                                 2112   CRET 0000H
                                 2113   
                                 2114   ;;	if(SENINTF_HDR1_GPIO0(D)==1 && SENINTF_HDR1_GPIO1(D)==1)
                                 2115   CLINEA 0000H 0001H 03D7H 0002H 0039H
00:0002 A1-A0 58-F2              2116   	tb	0f258h.2
00:0006 0E C9                    2117   	beq	_$L127
00:0008 B1-A0 58-F2              2118   	tb	0f258h.3
00:000C 0B C9                    2119   	beq	_$L127
                                 2120   CBLOCK 201 3 984
                                 2121   
                                 2122   ;;		LEDOUT(0x0);	// Turn off all LEDs
                                 2123   CLINEA 0000H 0001H 03D9H 0003H 0023H
00:000E 00 00                    2124   	mov	r0,	#00h
00:0010 11-90 60-F2              2125   	st	r0,	0f260h
                                 2126   
                                 2127   ;;		PRINTF(ESC_ERASE2END "BU52004GUL> Hall  No Mag Fields Detected." ESC_SOL);
                                 2128   CLINEA 0000H 0001H 03DAH 0003H 004FH
00:0014 31 E0                    2129   	mov	er0,	#49
00:0016 5E-F0                    2130   	push	er0
00:0018 00'02                    2131   	mov	r2,	#BYTE1 OFFSET $$S134
00:001A 00'03                    2132   	mov	r3,	#BYTE2 OFFSET $$S134
00:001C 00 E0                    2133   	mov	er0,	#0 
00:001E 01-F0'00-00'             2134   	bl	_write
                                 2135   
                                 2136   ;;	else if(SENINTF_HDR1_GPIO0(D)==1 && SENINTF_HDR1_GPIO1(D)==0)
                                 2137   CLINEA 0000H 0001H 03DCH 0002H 003EH
00:0022 2C CE                    2138   	bal	_$L153
00:0024                          2139   _$L127 :
00:0024 A1-A0 58-F2              2140   	tb	0f258h.2
00:0028 0E C9                    2141   	beq	_$L136
00:002A B1-A0 58-F2              2142   	tb	0f258h.3
00:002E 0B C8                    2143   	bne	_$L136
                                 2144   CBLOCK 201 4 989
                                 2145   
                                 2146   ;;		LEDOUT(0x02);	// Turn on LED1
                                 2147   CLINEA 0000H 0001H 03DEH 0003H 001FH
00:0030 02 00                    2148   	mov	r0,	#02h
00:0032 11-90 60-F2              2149   	st	r0,	0f260h
                                 2150   
                                 2151   ;;		PRINTF(ESC_ERASE2END "BU52004GUL> Hall  North Mag Field Detected." ESC_SOL);
                                 2152   CLINEA 0000H 0001H 03DFH 0003H 0051H
00:0036 33 E0                    2153   	mov	er0,	#51
00:0038 5E-F0                    2154   	push	er0
00:003A 00'02                    2155   	mov	r2,	#BYTE1 OFFSET $$S143
00:003C 00'03                    2156   	mov	r3,	#BYTE2 OFFSET $$S143
00:003E 00 E0                    2157   	mov	er0,	#0 
00:0040 01-F0'00-00'             2158   	bl	_write
                                 2159   
                                 2160   ;;	else if(SENINTF_HDR1_GPIO0(D)==0 && SENINTF_HDR1_GPIO1(D)==1)
                                 2161   CLINEA 0000H 0001H 03E1H 0002H 003EH
00:0044 1B CE                    2162   	bal	_$L153
00:0046                          2163   _$L136 :
00:0046 A1-A0 58-F2              2164   	tb	0f258h.2
00:004A 0E C8                    2165   	bne	_$L145
00:004C B1-A0 58-F2              2166   	tb	0f258h.3
00:0050 0B C9                    2167   	beq	_$L145
                                 2168   CBLOCK 201 5 994
                                 2169   
                                 2170   ;;		LEDOUT(0x80);	// Turn on LED7
                                 2171   CLINEA 0000H 0001H 03E3H 0003H 001FH
00:0052 80 00                    2172   	mov	r0,	#080h
00:0054 11-90 60-F2              2173   	st	r0,	0f260h
                                 2174   
                                 2175   ;;		PRINTF(ESC_ERASE2END "BU52004GUL> Hall  South Mag Field Detected." ESC_SOL);
                                 2176   CLINEA 0000H 0001H 03E4H 0003H 0051H
00:0058 33 E0                    2177   	mov	er0,	#51
00:005A 5E-F0                    2178   	push	er0
00:005C 00'02                    2179   	mov	r2,	#BYTE1 OFFSET $$S152
00:005E 00'03                    2180   	mov	r3,	#BYTE2 OFFSET $$S152
00:0060 00 E0                    2181   	mov	er0,	#0 
00:0062 01-F0'00-00'             2182   	bl	_write
                                 2183   CBLOCKEND 201 5 997
                                 2184   
                                 2185   ;;	else
                                 2186   CLINEA 0000H 0001H 03E6H 0002H 0005H
00:0066 0A CE                    2187   	bal	_$L153
00:0068                          2188   _$L145 :
                                 2189   CBLOCK 201 6 999
                                 2190   
                                 2191   ;;		LEDOUT(0x82);	// Turn on LED7 and LED1
                                 2192   CLINEA 0000H 0001H 03E8H 0003H 0028H
00:0068 82 00                    2193   	mov	r0,	#082h
00:006A 11-90 60-F2              2194   	st	r0,	0f260h
                                 2195   
                                 2196   ;;		PRINTF( "BU52004GUL> Hall  Both Mag Fields Detected." ESC_NEWLINE);
                                 2197   CLINEA 0000H 0001H 03E9H 0003H 0048H
00:006E 31 E0                    2198   	mov	er0,	#49
00:0070 5E-F0                    2199   	push	er0
00:0072 00'02                    2200   	mov	r2,	#BYTE1 OFFSET $$S154
00:0074 00'03                    2201   	mov	r3,	#BYTE2 OFFSET $$S154
00:0076 00 E0                    2202   	mov	er0,	#0 
00:0078 01-F0'00-00'             2203   	bl	_write
                                 2204   CBLOCKEND 201 6 1002
                                 2205   
                                 2206   ;;	}
                                 2207   CLINEA 0000H 0000H 03EAH 0002H 0002H
00:007C                          2208   _$L153 :
00:007C 02 E1                    2209   	add	sp,	#2 
                                 2210   CBLOCKEND 201 4 1003
                                 2211   CBLOCKEND 201 3 1003
                                 2212   CBLOCKEND 201 2 1003
                                 2213   
                                 2214   ;;}
                                 2215   CLINEA 0000H 0001H 03EBH 0001H 0001H
00:007E 8E-F2                    2216   	pop	pc
                                 2217   CBLOCKEND 201 1 1003
                                 2218   CFUNCTIONEND 201
                                 2219   
                                 2220   
  --------------------------     2221   	rseg $$MainOp_Hall_Effect_Sensors_2$main
                                 2222   CFUNCTION 202
                                 2223   
00:0000                          2224   _MainOp_Hall_Effect_Sensors_2	:
                                 2225   CBLOCK 202 1 1016
                                 2226   
                                 2227   ;;{
                                 2228   CLINEA 0000H 0001H 03F8H 0001H 0001H
00:0000 CE-F8                    2229   	push	lr
                                 2230   CBLOCK 202 2 1016
                                 2231   CRET 0000H
                                 2232   
                                 2233   ;;	if(SENINTF_HDR1_GPIO0(D)==0)
                                 2234   CLINEA 0000H 0001H 03F9H 0002H 001DH
00:0002 A1-A0 58-F2              2235   	tb	0f258h.2
00:0006 0B C8                    2236   	bne	_$L156
                                 2237   CBLOCK 202 3 1018
                                 2238   
                                 2239   ;;		LEDOUT(0x80);	// Turn on LED7
                                 2240   CLINEA 0000H 0001H 03FBH 0003H 001FH
00:0008 80 00                    2241   	mov	r0,	#080h
00:000A 11-90 60-F2              2242   	st	r0,	0f260h
                                 2243   
                                 2244   ;;		PRINTF( ESC_NEWLINE "BU52011HFV> \t\t\t\t= Mag Field Detected.        " ESC_NEWLINE );
                                 2245   CLINEA 0000H 0001H 03FCH 0003H 0058H
00:000E 32 E0                    2246   	mov	er0,	#50
00:0010 5E-F0                    2247   	push	er0
00:0012 00'02                    2248   	mov	r2,	#BYTE1 OFFSET $$S158
00:0014 00'03                    2249   	mov	r3,	#BYTE2 OFFSET $$S158
00:0016 00 E0                    2250   	mov	er0,	#0 
00:0018 01-F0'00-00'             2251   	bl	_write
                                 2252   CBLOCKEND 202 3 1021
                                 2253   
                                 2254   ;;	else
                                 2255   CLINEA 0000H 0001H 03FEH 0002H 0005H
00:001C 0A CE                    2256   	bal	_$L159
00:001E                          2257   _$L156 :
                                 2258   CBLOCK 202 4 1023
                                 2259   
                                 2260   ;;		LEDOUT(0x0);	// Turn off all LEDs
                                 2261   CLINEA 0000H 0001H 0400H 0003H 0023H
00:001E 00 00                    2262   	mov	r0,	#00h
00:0020 11-90 60-F2              2263   	st	r0,	0f260h
                                 2264   
                                 2265   ;;		PRINTF( ESC_NEWLINE "BU52011HFV> \t\t\t\t= No Mag Fields Detected.           " ESC_NEWLINE);
                                 2266   CLINEA 0000H 0001H 0401H 0003H 005EH
00:0024 39 E0                    2267   	mov	er0,	#57
00:0026 5E-F0                    2268   	push	er0
00:0028 00'02                    2269   	mov	r2,	#BYTE1 OFFSET $$S160
00:002A 00'03                    2270   	mov	r3,	#BYTE2 OFFSET $$S160
00:002C 00 E0                    2271   	mov	er0,	#0 
00:002E 01-F0'00-00'             2272   	bl	_write
                                 2273   CBLOCKEND 202 4 1026
                                 2274   
                                 2275   ;;	}
                                 2276   CLINEA 0000H 0000H 0402H 0002H 0002H
00:0032                          2277   _$L159 :
00:0032 02 E1                    2278   	add	sp,	#2 
                                 2279   CBLOCKEND 202 2 1027
                                 2280   
                                 2281   ;;}
                                 2282   CLINEA 0000H 0001H 0403H 0001H 0001H
00:0034 8E-F2                    2283   	pop	pc
                                 2284   CBLOCKEND 202 1 1027
                                 2285   CFUNCTIONEND 202
                                 2286   
                                 2287   
  --------------------------     2288   	rseg $$MainOp_Pressure_Sensor_3$main
                                 2289   CFUNCTION 203
                                 2290   
00:0000                          2291   _MainOp_Pressure_Sensor_3	:
                                 2292   CBLOCK 203 1 1040
                                 2293   
                                 2294   ;;{
                                 2295   CLINEA 0000H 0001H 0410H 0001H 0001H
00:0000 CE-F8                    2296   	push	lr
00:0002 5E-FE                    2297   	push	fp
00:0004 1A-AE                    2298   	mov	fp,	sp
00:0006 F8 E1                    2299   	add	sp,	#-08
00:0008 6E-F8                    2300   	push	xr8
00:000A 6E-F4                    2301   	push	xr4
                                 2302   CBLOCK 203 2 1040
                                 2303   CRET 0012H
                                 2304   CLOCAL 47H 0004H 2928H 0002H "temperature" 02H 00H 03H
                                 2305   CLOCAL 4BH 0004H 0000H 0002H "pressure" 02H 00H 03H
                                 2306   CLOCAL 43H 0004H 0008H 0002H "var_int" 02H 00H 03H
                                 2307   CLOCAL 43H 0004H 0004H 0002H "var_frac" 02H 00H 03H
                                 2308   CLOCAL 47H 0004H 2726H 0002H "sign" 02H 00H 03H
                                 2309   
                                 2310   ;;	I2C_Read(BM1383GLV_I2C_ADDR, &BM1383GLV_TEMPERATURE_MSB, 1, uniRawSensorOut._ucharArr, 5);
                                 2311   CLINEA 0000H 0001H 0413H 0002H 005BH
00:000C 05 00                    2312   	mov	r0,	#05h
00:000E 4E-F0                    2313   	push	r0
00:0010 00'00                    2314   	mov	r0,	#BYTE1 OFFSET _uniRawSensorOut
00:0012 00'01                    2315   	mov	r1,	#BYTE2 OFFSET _uniRawSensorOut
00:0014 5E-F0                    2316   	push	er0
00:0016 01 00                    2317   	mov	r0,	#01h
00:0018 4E-F0                    2318   	push	r0
00:001A 00'02                    2319   	mov	r2,	#BYTE1 OFFSET _BM1383GLV_TEMPERATURE_MSB
00:001C 00'03                    2320   	mov	r3,	#BYTE2 OFFSET _BM1383GLV_TEMPERATURE_MSB
00:001E 5D 00                    2321   	mov	r0,	#05dh
00:0020 01-F0'00-00'             2322   	bl	_I2C_Read
00:0024 06 E1                    2323   	add	sp,	#6 
                                 2324   
                                 2325   ;;	sign = ((uniRawSensorOut._ucharArr[0] >> 7) == 1) ? -1: 1 ;
                                 2326   CLINEA 0000H 0000H 0415H 0002H 003CH
00:0026 10-90 00-00'             2327   	l	r0,	NEAR _uniRawSensorOut
00:002A 00 01                    2328   	mov	r1,	#00h
00:002C 7D-90                    2329   	srlc	r0,	#07h
00:002E 7E-91                    2330   	sra	r1,	#07h
00:0030 01 70                    2331   	cmp	r0,	#01h
00:0032 00 51                    2332   	cmpc	r1,	#00h
00:0034 02 C8                    2333   	bne	_$L162
00:0036 7F E0                    2334   	mov	er0,	#-1
00:0038 01 CE                    2335   	bal	_$L164
00:003A                          2336   _$L162 :
00:003A 01 E0                    2337   	mov	er0,	#1 
00:003C                          2338   _$L164 :
00:003C 10-82                    2339   	mov	r2,	r1
00:003E 2F-83                    2340   	extbw	er2
00:0040 30-82                    2341   	mov	r2,	r3
00:0042 6E-F0                    2342   	push	xr0
00:0044 01-F0'00-00'             2343   	bl	__fildu8sw
00:0048 2E-F0                    2344   	pop	xr0
                                 2345   
                                 2346   ;;	var_frac = ( uniRawSensorOut._ucharArr[1] & 0x1f) * 0.03125 * sign  ; 		//0.03125 = 2^-5 
                                 2347   CLINEA 0000H 0001H 0416H 0002H 005AH
00:004A 6E-F0                    2348   	push	xr0
00:004C FC E1                    2349   	add	sp,	#-4
00:004E 01-F0'00-00'             2350   	bl	__ftodu8sw
00:0052 10-90 00-00'             2351   	l	r0,	NEAR _uniRawSensorOut+01h
00:0056 00 01                    2352   	mov	r1,	#00h
00:0058 1F 20                    2353   	and	r0,	#01fh
00:005A 00 21                    2354   	and	r1,	#00h
00:005C 10-82                    2355   	mov	r2,	r1
00:005E 2F-83                    2356   	extbw	er2
00:0060 30-82                    2357   	mov	r2,	r3
00:0062 6E-F0                    2358   	push	xr0
00:0064 FC E1                    2359   	add	sp,	#-4
00:0066 01-F0'00-00'             2360   	bl	__dildu8sw
00:006A 01-F0'00-00'             2361   	bl	__dmulu8sw
00:006E 08 E1                    2362   	add	sp,	#8 
00:0070 00 E0                    2363   	mov	er0,	#0 
00:0072 00 E2                    2364   	mov	er2,	#0 
00:0074 00 E4                    2365   	mov	er4,	#0 
00:0076 A0 06                    2366   	mov	r6,	#0a0h
00:0078 3F 07                    2367   	mov	r7,	#03fh
00:007A 7E-F0                    2368   	push	qr0
00:007C 01-F0'00-00'             2369   	bl	__dmulu8sw
00:0080 08 E1                    2370   	add	sp,	#8 
00:0082 01-F0'00-00'             2371   	bl	__dtofu8sw
00:0086 04 E1                    2372   	add	sp,	#4 
00:0088 2E-F0                    2373   	pop	xr0
00:008A FC B0                    2374   	st	er0,	-4[fp]
00:008C FE B2                    2375   	st	er2,	-2[fp]
                                 2376   
                                 2377   ;;	var_int  = ((signed char)uniRawSensorOut._ucharArr[0] )<< 3 |(uniRawSensorOut._ucharArr[1] >> 5) ;
                                 2378   CLINEA 0000H 0001H 0417H 0002H 0063H
00:008E 10-90 00-00'             2379   	l	r0,	NEAR _uniRawSensorOut
00:0092 0F-81                    2380   	extbw	er0
00:0094 3B-91                    2381   	sllc	r1,	#03h
00:0096 3A-90                    2382   	sll	r0,	#03h
00:0098 10-92 00-00'             2383   	l	r2,	NEAR _uniRawSensorOut+01h
00:009C 00 03                    2384   	mov	r3,	#00h
00:009E 5D-92                    2385   	srlc	r2,	#05h
00:00A0 5E-93                    2386   	sra	r3,	#05h
00:00A2 03-82                    2387   	or	r2,	r0
00:00A4 13-83                    2388   	or	r3,	r1
00:00A6 25-F0                    2389   	mov	er0,	er2
00:00A8 10-82                    2390   	mov	r2,	r1
00:00AA 2F-83                    2391   	extbw	er2
00:00AC 30-82                    2392   	mov	r2,	r3
00:00AE 6E-F0                    2393   	push	xr0
00:00B0 01-F0'00-00'             2394   	bl	__fildu8sw
00:00B4 2E-F0                    2395   	pop	xr0
00:00B6 F8 B0                    2396   	st	er0,	-8[fp]
00:00B8 FA B2                    2397   	st	er2,	-6[fp]
                                 2398   
                                 2399   ;;	temperature = (var_int + var_frac);///32 ;
                                 2400   CLINEA 0000H 0001H 0418H 0002H 002BH
00:00BA 7C B0                    2401   	l	er0,	-4[fp]
00:00BC 7E B2                    2402   	l	er2,	-2[fp]
00:00BE 6E-F0                    2403   	push	xr0
00:00C0 78 B0                    2404   	l	er0,	-8[fp]
00:00C2 7A B2                    2405   	l	er2,	-6[fp]
00:00C4 6E-F0                    2406   	push	xr0
00:00C6 01-F0'00-00'             2407   	bl	__faddu8sw
00:00CA 04 E1                    2408   	add	sp,	#4 
00:00CC 2E-F0                    2409   	pop	xr0
00:00CE 05-F8                    2410   	mov	er8,	er0
00:00D0 25-FA                    2411   	mov	er10,	er2
                                 2412   
                                 2413   ;;	var_int  = (uniRawSensorOut._ucharArr[2]<<3) | (uniRawSensorOut._ucharArr[3] >> 5);
                                 2414   CLINEA 0000H 0001H 041AH 0002H 0054H
00:00D2 10-90 00-00'             2415   	l	r0,	NEAR _uniRawSensorOut+02h
00:00D6 00 01                    2416   	mov	r1,	#00h
00:00D8 3B-91                    2417   	sllc	r1,	#03h
00:00DA 3A-90                    2418   	sll	r0,	#03h
00:00DC 10-92 00-00'             2419   	l	r2,	NEAR _uniRawSensorOut+03h
00:00E0 00 03                    2420   	mov	r3,	#00h
00:00E2 5D-92                    2421   	srlc	r2,	#05h
00:00E4 5E-93                    2422   	sra	r3,	#05h
00:00E6 03-82                    2423   	or	r2,	r0
00:00E8 13-83                    2424   	or	r3,	r1
00:00EA 25-F0                    2425   	mov	er0,	er2
00:00EC 10-82                    2426   	mov	r2,	r1
00:00EE 2F-83                    2427   	extbw	er2
00:00F0 30-82                    2428   	mov	r2,	r3
00:00F2 6E-F0                    2429   	push	xr0
00:00F4 01-F0'00-00'             2430   	bl	__fildu8sw
00:00F8 2E-F0                    2431   	pop	xr0
00:00FA F8 B0                    2432   	st	er0,	-8[fp]
00:00FC FA B2                    2433   	st	er2,	-6[fp]
                                 2434   
                                 2435   ;;	var_frac = ((uniRawSensorOut._ucharArr[3] & 0x1f) << 6 | (uniRawSensorOut._ucharArr[4] >> 2)) * 0.00048828125;  //0.00048828125 = 2^-11
                                 2436   CLINEA 0000H 0001H 041BH 0002H 0088H
00:00FE 10-90 00-00'             2437   	l	r0,	NEAR _uniRawSensorOut+03h
00:0102 00 01                    2438   	mov	r1,	#00h
00:0104 1F 20                    2439   	and	r0,	#01fh
00:0106 00 21                    2440   	and	r1,	#00h
00:0108 6B-91                    2441   	sllc	r1,	#06h
00:010A 6A-90                    2442   	sll	r0,	#06h
00:010C 10-92 00-00'             2443   	l	r2,	NEAR _uniRawSensorOut+04h
00:0110 00 03                    2444   	mov	r3,	#00h
00:0112 2D-92                    2445   	srlc	r2,	#02h
00:0114 2E-93                    2446   	sra	r3,	#02h
00:0116 03-82                    2447   	or	r2,	r0
00:0118 13-83                    2448   	or	r3,	r1
00:011A 25-F0                    2449   	mov	er0,	er2
00:011C 10-82                    2450   	mov	r2,	r1
00:011E 2F-83                    2451   	extbw	er2
00:0120 30-82                    2452   	mov	r2,	r3
00:0122 6E-F0                    2453   	push	xr0
00:0124 FC E1                    2454   	add	sp,	#-4
00:0126 01-F0'00-00'             2455   	bl	__dildu8sw
00:012A 00 E0                    2456   	mov	er0,	#0 
00:012C 00 E2                    2457   	mov	er2,	#0 
00:012E 40 06                    2458   	mov	r6,	#040h
00:0130 7E-F0                    2459   	push	qr0
00:0132 01-F0'00-00'             2460   	bl	__dmulu8sw
00:0136 08 E1                    2461   	add	sp,	#8 
00:0138 01-F0'00-00'             2462   	bl	__dtofu8sw
00:013C 04 E1                    2463   	add	sp,	#4 
00:013E 2E-F0                    2464   	pop	xr0
00:0140 FC B0                    2465   	st	er0,	-4[fp]
00:0142 FE B2                    2466   	st	er2,	-2[fp]
                                 2467   
                                 2468   ;;	printf( ESC_NEWLINE "BM1383> Pressure \t\t\t= %3.4f[hPa], \n\r\tTemperature \t\t\t= %3.4f[C]" ESC_NEWLINE, pressure,temperature);
                                 2469   CLINEA 0000H 0001H 041EH 0002H 0082H
00:0144 6E-F8                    2470   	push	xr8
00:0146 FC E1                    2471   	add	sp,	#-4
00:0148 01-F0'00-00'             2472   	bl	__ftodu8sw
00:014C 7C B0                    2473   	l	er0,	-4[fp]
00:014E 7E B2                    2474   	l	er2,	-2[fp]
00:0150 6E-F0                    2475   	push	xr0
00:0152 78 B0                    2476   	l	er0,	-8[fp]
00:0154 7A B2                    2477   	l	er2,	-6[fp]
00:0156 6E-F0                    2478   	push	xr0
00:0158 01-F0'00-00'             2479   	bl	__faddu8sw
00:015C 01-F0'00-00'             2480   	bl	__ftodu8sw
00:0160 00'00                    2481   	mov	r0,	#BYTE1 OFFSET $$S165
00:0162 00'01                    2482   	mov	r1,	#BYTE2 OFFSET $$S165
00:0164 5E-F0                    2483   	push	er0
00:0166 01-F0'00-00'             2484   	bl	_printf_n
00:016A 12 E1                    2485   	add	sp,	#18
                                 2486   CBLOCKEND 203 2 1056
                                 2487   
                                 2488   ;;}
                                 2489   CLINEA 0000H 0001H 0420H 0001H 0001H
00:016C 2E-F4                    2490   	pop	xr4
00:016E 2E-F8                    2491   	pop	xr8
00:0170 EA-A1                    2492   	mov	sp,	fp
00:0172 1E-FE                    2493   	pop	fp
00:0174 8E-F2                    2494   	pop	pc
                                 2495   CBLOCKEND 203 1 1056
                                 2496   CFUNCTIONEND 203
                                 2497   
                                 2498   
  --------------------------     2499   	rseg $$MainOp_Color_Sensor_4$main
                                 2500   CFUNCTION 204
                                 2501   
00:0000                          2502   _MainOp_Color_Sensor_4	:
                                 2503   CBLOCK 204 1 1069
                                 2504   
                                 2505   ;;{
                                 2506   CLINEA 0000H 0001H 042DH 0001H 0001H
00:0000 CE-F8                    2507   	push	lr
00:0002 6E-F4                    2508   	push	xr4
00:0004 5E-F8                    2509   	push	er8
                                 2510   CBLOCK 204 2 1069
                                 2511   CRET 0006H
                                 2512   CLOCAL 47H 0002H 0028H 0002H "R" 02H 00H 01H
                                 2513   CLOCAL 47H 0002H 0027H 0002H "G" 02H 00H 01H
                                 2514   CLOCAL 47H 0002H 0026H 0002H "B" 02H 00H 01H
                                 2515   CLOCAL 47H 0002H 0024H 0002H "C" 02H 00H 01H
                                 2516   
                                 2517   ;;	I2C_Read(BH1745_I2C_ADDR, &BH1745_RED_DATA_LSBs, 1, uniRawSensorOut._ucharArr, 4);		//ucharArr max 6 elens
                                 2518   CLINEA 0000H 0001H 042FH 0002H 006BH
00:0006 04 00                    2519   	mov	r0,	#04h
00:0008 4E-F0                    2520   	push	r0
00:000A 00'00                    2521   	mov	r0,	#BYTE1 OFFSET _uniRawSensorOut
00:000C 00'01                    2522   	mov	r1,	#BYTE2 OFFSET _uniRawSensorOut
00:000E 5E-F0                    2523   	push	er0
00:0010 01 00                    2524   	mov	r0,	#01h
00:0012 4E-F0                    2525   	push	r0
00:0014 00'02                    2526   	mov	r2,	#BYTE1 OFFSET _BH1745_RED_DATA_LSBs
00:0016 00'03                    2527   	mov	r3,	#BYTE2 OFFSET _BH1745_RED_DATA_LSBs
00:0018 39 00                    2528   	mov	r0,	#039h
00:001A 01-F0'00-00'             2529   	bl	_I2C_Read
00:001E 06 E1                    2530   	add	sp,	#6 
                                 2531   
                                 2532   ;;	R	= 	((int)uniRawSensorOut._ucharArr[0] | ((int)uniRawSensorOut._ucharArr[1])<<8);
                                 2533   CLINEA 0000H 0001H 0430H 0002H 0053H
00:0020 10-90 00-00'             2534   	l	r0,	NEAR _uniRawSensorOut+01h
00:0024 00-81                    2535   	mov	r1,	r0
00:0026 00 00                    2536   	mov	r0,	#00h
00:0028 10-92 00-00'             2537   	l	r2,	NEAR _uniRawSensorOut
00:002C 23-80                    2538   	or	r0,	r2
00:002E 05-F8                    2539   	mov	er8,	er0
                                 2540   
                                 2541   ;;	G	= 	((int)uniRawSensorOut._ucharArr[2] | ((int)uniRawSensorOut._ucharArr[3])<<8);
                                 2542   CLINEA 0000H 0001H 0431H 0002H 0053H
00:0030 10-92 00-00'             2543   	l	r2,	NEAR _uniRawSensorOut+02h
00:0034 10-90 00-00'             2544   	l	r0,	NEAR _uniRawSensorOut+03h
00:0038 00-81                    2545   	mov	r1,	r0
00:003A 00 00                    2546   	mov	r0,	#00h
00:003C 23-80                    2547   	or	r0,	r2
00:003E 05-F6                    2548   	mov	er6,	er0
                                 2549   
                                 2550   ;;	I2C_Read(BH1745_I2C_ADDR, &BH1745_BLUE_DATA_LSBs, 1, uniRawSensorOut._ucharArr, 4);		//ucharArr max 6 elens
                                 2551   CLINEA 0000H 0001H 0433H 0002H 006CH
00:0040 04 00                    2552   	mov	r0,	#04h
00:0042 4E-F0                    2553   	push	r0
00:0044 00'00                    2554   	mov	r0,	#BYTE1 OFFSET _uniRawSensorOut
00:0046 00'01                    2555   	mov	r1,	#BYTE2 OFFSET _uniRawSensorOut
00:0048 5E-F0                    2556   	push	er0
00:004A 01 00                    2557   	mov	r0,	#01h
00:004C 4E-F0                    2558   	push	r0
00:004E 00'02                    2559   	mov	r2,	#BYTE1 OFFSET _BH1745_BLUE_DATA_LSBs
00:0050 00'03                    2560   	mov	r3,	#BYTE2 OFFSET _BH1745_BLUE_DATA_LSBs
00:0052 39 00                    2561   	mov	r0,	#039h
00:0054 01-F0'00-00'             2562   	bl	_I2C_Read
00:0058 06 E1                    2563   	add	sp,	#6 
                                 2564   
                                 2565   ;;	B	= 	((int)uniRawSensorOut._ucharArr[0] | ((int)uniRawSensorOut._ucharArr[1])<<8);
                                 2566   CLINEA 0000H 0001H 0434H 0002H 0053H
00:005A 10-90 00-00'             2567   	l	r0,	NEAR _uniRawSensorOut+01h
00:005E 00-81                    2568   	mov	r1,	r0
00:0060 00 00                    2569   	mov	r0,	#00h
00:0062 10-92 00-00'             2570   	l	r2,	NEAR _uniRawSensorOut
00:0066 23-80                    2571   	or	r0,	r2
00:0068 05-F4                    2572   	mov	er4,	er0
                                 2573   
                                 2574   ;;	C	 = 	((int)uniRawSensorOut._ucharArr[2] | ((int)uniRawSensorOut._ucharArr[3])<<8);
                                 2575   CLINEA 0000H 0001H 0435H 0002H 0054H
00:006A 10-92 00-00'             2576   	l	r2,	NEAR _uniRawSensorOut+02h
00:006E 10-90 00-00'             2577   	l	r0,	NEAR _uniRawSensorOut+03h
00:0072 00-81                    2578   	mov	r1,	r0
00:0074 00 00                    2579   	mov	r0,	#00h
00:0076 23-80                    2580   	or	r0,	r2
                                 2581   
                                 2582   ;;	printf( ESC_NEWLINE "BH1745> R \t\t\t\t= %8hu, \n\r\tG \t\t\t\t= %8hu, \n\r\tB \t\t\t\t= %8hu, \n\r\tC \t\t\t\t= %8hu" ESC_NEWLINE, (unsigned short)R, (unsigned short)G, (unsigned short)B, (unsigned short)C);
                                 2583   CLINEA 0000H 0001H 0437H 0002H 00D1H
00:0078 5E-F0                    2584   	push	er0
00:007A 5E-F4                    2585   	push	er4
00:007C 5E-F6                    2586   	push	er6
00:007E 5E-F8                    2587   	push	er8
00:0080 00'00                    2588   	mov	r0,	#BYTE1 OFFSET $$S167
00:0082 00'01                    2589   	mov	r1,	#BYTE2 OFFSET $$S167
00:0084 5E-F0                    2590   	push	er0
00:0086 01-F0'00-00'             2591   	bl	_printf_n
00:008A 0A E1                    2592   	add	sp,	#10
                                 2593   CBLOCKEND 204 2 1081
                                 2594   
                                 2595   ;;}
                                 2596   CLINEA 0000H 0001H 0439H 0001H 0001H
00:008C 1E-F8                    2597   	pop	er8
00:008E 2E-F4                    2598   	pop	xr4
00:0090 8E-F2                    2599   	pop	pc
                                 2600   CBLOCKEND 204 1 1081
                                 2601   CFUNCTIONEND 204
                                 2602   
                                 2603   
  --------------------------     2604   	rseg $$MainOp_Ambient_Light_Sensor_5$main
                                 2605   CFUNCTION 205
                                 2606   
00:0000                          2607   _MainOp_Ambient_Light_Sensor_5	:
                                 2608   CBLOCK 205 1 1093
                                 2609   
                                 2610   ;;{	
                                 2611   CLINEA 0000H 0001H 0445H 0001H 0002H
00:0000 CE-F8                    2612   	push	lr
                                 2613   CBLOCK 205 2 1093
                                 2614   CRET 0000H
                                 2615   
                                 2616   ;;	uniRawSensorOut._uint = ADC_Read(0);
                                 2617   CLINEA 0000H 0000H 0446H 0002H 0025H
00:0002 00 00                    2618   	mov	r0,	#00h
00:0004 01-F0'00-00'             2619   	bl	_ADC_Read
00:0008 13-90 00-00'             2620   	st	er0,	NEAR _uniRawSensorOut
                                 2621   
                                 2622   ;;	flSensorOut[0] = uniRawSensorOut._uint*3.3f/1023;
                                 2623   CLINEA 0000H 0001H 0448H 0002H 0032H
00:000C 00 E2                    2624   	mov	er2,	#0 
00:000E 6E-F0                    2625   	push	xr0
00:0010 01-F0'00-00'             2626   	bl	__fuldu8sw
00:0014 33 00                    2627   	mov	r0,	#033h
00:0016 33 01                    2628   	mov	r1,	#033h
00:0018 53 02                    2629   	mov	r2,	#053h
00:001A 40 03                    2630   	mov	r3,	#040h
00:001C 6E-F0                    2631   	push	xr0
00:001E 01-F0'00-00'             2632   	bl	__fmulu8sw
00:0022 04 E1                    2633   	add	sp,	#4 
00:0024 00 00                    2634   	mov	r0,	#00h
00:0026 C0 01                    2635   	mov	r1,	#0c0h
00:0028 7F 02                    2636   	mov	r2,	#07fh
00:002A 44 03                    2637   	mov	r3,	#044h
00:002C 6E-F0                    2638   	push	xr0
00:002E 01-F0'00-00'             2639   	bl	__fdivu8sw
00:0032 04 E1                    2640   	add	sp,	#4 
00:0034 2E-F0                    2641   	pop	xr0
00:0036 13-90 00-00'             2642   	st	er0,	NEAR _flSensorOut
00:003A 13-92 00-00'             2643   	st	er2,	NEAR _flSensorOut+02h
                                 2644   
                                 2645   ;;	switch(SENINTF_HDR1_GPIO1(D)<<1|SENINTF_HDR1_GPIO0(D))
                                 2646   CLINEA 0000H 0001H 044DH 0002H 0037H
00:003E 10-90 58-F2              2647   	l	r0,	0f258h
00:0042 3C-90                    2648   	srl	r0,	#03h
00:0044 01 20                    2649   	and	r0,	#01h
00:0046 00 01                    2650   	mov	r1,	#00h
00:0048 05-F2                    2651   	mov	er2,	er0
00:004A 1B-93                    2652   	sllc	r3,	#01h
00:004C 1A-92                    2653   	sll	r2,	#01h
00:004E 10-90 58-F2              2654   	l	r0,	0f258h
00:0052 2C-90                    2655   	srl	r0,	#02h
00:0054 01 20                    2656   	and	r0,	#01h
00:0056 23-80                    2657   	or	r0,	r2
00:0058 33-81                    2658   	or	r1,	r3
00:005A 05-F2                    2659   	mov	er2,	er0
                                 2660   CBLOCK 205 3 1102
00:005C 00 71                    2661   	cmp	r1,	#00h
00:005E 0A C8                    2662   	bne	_$L177
00:0060 20-80                    2663   	mov	r0,	r2
00:0062 08 C9                    2664   	beq	_$L177
                                 2665   
                                 2666   ;;	switch(SENINTF_HDR1_GPIO1(D)<<1|SENINTF_HDR1_GPIO0(D))
                                 2667   CLINEA 0000H 0000H 044DH 0002H 0037H
00:0064 01 72                    2668   	cmp	r2,	#01h
00:0066 22 C9                    2669   	beq	_$L174
                                 2670   
                                 2671   ;;	switch(SENINTF_HDR1_GPIO1(D)<<1|SENINTF_HDR1_GPIO0(D))
                                 2672   CLINEA 0000H 0000H 044DH 0002H 0037H
00:0068 02 72                    2673   	cmp	r2,	#02h
00:006A 33 C9                    2674   	beq	_$L175
                                 2675   
                                 2676   ;;	switch(SENINTF_HDR1_GPIO1(D)<<1|SENINTF_HDR1_GPIO0(D))
                                 2677   CLINEA 0000H 0000H 044DH 0002H 0037H
00:006C 03 72                    2678   	cmp	r2,	#03h
00:006E 02 C8                    2679   	bne	_$M21
00:0070 00-F0'00-00'             2680   	b	_$L176
00:0074                          2681   _$M21 :
                                 2682   
                                 2683   ;;		case 0:	// Shutdown
                                 2684   CLINEA 0000H 0001H 0458H 0003H 0015H
00:0074                          2685   _$L177 :
                                 2686   
                                 2687   ;;			flSensorOut[0] = 0;
                                 2688   CLINEA 0000H 0001H 045AH 0004H 0016H
00:0074 00 E0                    2689   	mov	er0,	#0 
00:0076 13-90 00-00'             2690   	st	er0,	NEAR _flSensorOut
00:007A 13-90 00-00'             2691   	st	er0,	NEAR _flSensorOut+02h
                                 2692   CBLOCKEND 205 3 1116
                                 2693   
                                 2694   ;;	}
                                 2695   CLINEA 0000H 0000H 045CH 0002H 0002H
00:007E                          2696   _$L172 :
                                 2697   
                                 2698   ;;	LEDOUT(ReverseBits((unsigned char)(uniRawSensorOut._uint>>2)));
                                 2699   CLINEA 0000H 0000H 045EH 0002H 0040H
00:007E 12-90 00-00'             2700   	l	er0,	NEAR _uniRawSensorOut
00:0082 2D-90                    2701   	srlc	r0,	#02h
00:0084 01-F0'00-00'             2702   	bl	_ReverseBits
00:0088 11-90 60-F2              2703   	st	r0,	0f260h
                                 2704   
                                 2705   ;;	printf(ESC_ERASE2END "BH1620FVC> Ambient Light = %lu[lx]" ESC_SOL, (unsigned long)flSensorOut[0]);
                                 2706   CLINEA 0000H 0001H 045FH 0002H 0063H
00:008C 12-90 00-00'             2707   	l	er0,	NEAR _flSensorOut
00:0090 12-92 00-00'             2708   	l	er2,	NEAR _flSensorOut+02h
00:0094 6E-F0                    2709   	push	xr0
00:0096 01-F0'00-00'             2710   	bl	__ftolu8sw
00:009A 2E-F0                    2711   	pop	xr0
00:009C 6E-F0                    2712   	push	xr0
00:009E 00'00                    2713   	mov	r0,	#BYTE1 OFFSET $$S178
00:00A0 00'01                    2714   	mov	r1,	#BYTE2 OFFSET $$S178
00:00A2 5E-F0                    2715   	push	er0
00:00A4 01-F0'00-00'             2716   	bl	_printf_n
00:00A8 06 E1                    2717   	add	sp,	#6 
                                 2718   CBLOCKEND 205 2 1120
                                 2719   
                                 2720   ;;}
                                 2721   CLINEA 0000H 0001H 0460H 0001H 0001H
00:00AA 8E-F2                    2722   	pop	pc
                                 2723   
                                 2724   ;;		case 1: // H-Gain mode
                                 2725   CLINEA 0000H 0001H 044FH 0003H 0018H
00:00AC                          2726   _$L174 :
                                 2727   
                                 2728   ;;			flSensorOut[0] = flSensorOut[0]/(0.57e-6f*5.6e3f);
                                 2729   CLINEA 0000H 0001H 0450H 0004H 0035H
00:00AC 12-90 00-00'             2730   	l	er0,	NEAR _flSensorOut
00:00B0 12-92 00-00'             2731   	l	er2,	NEAR _flSensorOut+02h
00:00B4 6E-F0                    2732   	push	xr0
00:00B6 E0 00                    2733   	mov	r0,	#0e0h
00:00B8 30 01                    2734   	mov	r1,	#030h
00:00BA 51 02                    2735   	mov	r2,	#051h
00:00BC 3B 03                    2736   	mov	r3,	#03bh
00:00BE 6E-F0                    2737   	push	xr0
00:00C0 01-F0'00-00'             2738   	bl	__fdivu8sw
00:00C4 04 E1                    2739   	add	sp,	#4 
00:00C6 2E-F0                    2740   	pop	xr0
00:00C8 13-90 00-00'             2741   	st	er0,	NEAR _flSensorOut
00:00CC 13-92 00-00'             2742   	st	er2,	NEAR _flSensorOut+02h
                                 2743   
                                 2744   ;;			break;
                                 2745   CLINEA 0000H 0001H 0451H 0004H 0009H
00:00D0 D6 CE                    2746   	bal	_$L172
                                 2747   
                                 2748   ;;		case 2: // M-Gain mode
                                 2749   CLINEA 0000H 0001H 0452H 0003H 0018H
00:00D2                          2750   _$L175 :
                                 2751   
                                 2752   ;;			flSensorOut[0] = flSensorOut[0]/(0.057e-6f*5.6e3f);
                                 2753   CLINEA 0000H 0001H 0453H 0004H 0036H
00:00D2 12-90 00-00'             2754   	l	er0,	NEAR _flSensorOut
00:00D6 12-92 00-00'             2755   	l	er2,	NEAR _flSensorOut+02h
00:00DA 6E-F0                    2756   	push	xr0
00:00DC 4D 00                    2757   	mov	r0,	#04dh
00:00DE 5A 01                    2758   	mov	r1,	#05ah
00:00E0 A7 02                    2759   	mov	r2,	#0a7h
00:00E2 39 03                    2760   	mov	r3,	#039h
00:00E4 6E-F0                    2761   	push	xr0
00:00E6 01-F0'00-00'             2762   	bl	__fdivu8sw
00:00EA 04 E1                    2763   	add	sp,	#4 
00:00EC 2E-F0                    2764   	pop	xr0
00:00EE 13-90 00-00'             2765   	st	er0,	NEAR _flSensorOut
00:00F2 13-92 00-00'             2766   	st	er2,	NEAR _flSensorOut+02h
                                 2767   
                                 2768   ;;			break;
                                 2769   CLINEA 0000H 0001H 0454H 0004H 0009H
00:00F6 C3 CE                    2770   	bal	_$L172
                                 2771   
                                 2772   ;;		case 3: // L-Gain mode
                                 2773   CLINEA 0000H 0001H 0455H 0003H 0018H
00:00F8                          2774   _$L176 :
                                 2775   
                                 2776   ;;			flSensorOut[0] = flSensorOut[0]/(0.0057e-6f*5.6e3f);
                                 2777   CLINEA 0000H 0001H 0456H 0004H 0037H
00:00F8 12-90 00-00'             2778   	l	er0,	NEAR _flSensorOut
00:00FC 12-92 00-00'             2779   	l	er2,	NEAR _flSensorOut+02h
00:0100 6E-F0                    2780   	push	xr0
00:0102 D7 00                    2781   	mov	r0,	#0d7h
00:0104 E1 01                    2782   	mov	r1,	#0e1h
00:0106 05 02                    2783   	mov	r2,	#05h
00:0108 38 03                    2784   	mov	r3,	#038h
00:010A 6E-F0                    2785   	push	xr0
00:010C 01-F0'00-00'             2786   	bl	__fdivu8sw
00:0110 04 E1                    2787   	add	sp,	#4 
00:0112 2E-F0                    2788   	pop	xr0
00:0114 13-90 00-00'             2789   	st	er0,	NEAR _flSensorOut
00:0118 13-92 00-00'             2790   	st	er2,	NEAR _flSensorOut+02h
                                 2791   
                                 2792   ;;			break;
                                 2793   CLINEA 0000H 0001H 0457H 0004H 0009H
00:011C 00-F0'00-00'             2794   	b	_$L172
                                 2795   CBLOCKEND 205 1 1120
                                 2796   CFUNCTIONEND 205
                                 2797   
                                 2798   
  --------------------------     2799   	rseg $$MainOp_Ambient_Light_Sensor_6$main
                                 2800   CFUNCTION 206
                                 2801   
00:0000                          2802   _MainOp_Ambient_Light_Sensor_6	:
                                 2803   CBLOCK 206 1 1133
                                 2804   
                                 2805   ;;{
                                 2806   CLINEA 0000H 0001H 046DH 0001H 0001H
00:0000 CE-F8                    2807   	push	lr
                                 2808   CBLOCK 206 2 1133
                                 2809   CRET 0000H
                                 2810   
                                 2811   ;;	I2C_Read(BH17xxFVC_ADDR_1, NULL, 0, uniRawSensorOut._ucharArr, 2);
                                 2812   CLINEA 0000H 0001H 0473H 0002H 0043H
00:0002 02 00                    2813   	mov	r0,	#02h
00:0004 4E-F0                    2814   	push	r0
00:0006 00'00                    2815   	mov	r0,	#BYTE1 OFFSET _uniRawSensorOut
00:0008 00'01                    2816   	mov	r1,	#BYTE2 OFFSET _uniRawSensorOut
00:000A 5E-F0                    2817   	push	er0
00:000C 00 00                    2818   	mov	r0,	#00h
00:000E 4E-F0                    2819   	push	r0
00:0010 00 E2                    2820   	mov	er2,	#0 
00:0012 23 00                    2821   	mov	r0,	#023h
00:0014 01-F0'00-00'             2822   	bl	_I2C_Read
00:0018 06 E1                    2823   	add	sp,	#6 
                                 2824   
                                 2825   ;;	flSensorOut[0] = (uniRawSensorOut._ucharArr[0]<<8|uniRawSensorOut._ucharArr[1])/1.2f;
                                 2826   CLINEA 0000H 0001H 0477H 0002H 0056H
00:001A 10-90 00-00'             2827   	l	r0,	NEAR _uniRawSensorOut
00:001E 00 01                    2828   	mov	r1,	#00h
00:0020 00-83                    2829   	mov	r3,	r0
00:0022 10-90 00-00'             2830   	l	r0,	NEAR _uniRawSensorOut+01h
00:0026 33-81                    2831   	or	r1,	r3
00:0028 10-82                    2832   	mov	r2,	r1
00:002A 2F-83                    2833   	extbw	er2
00:002C 30-82                    2834   	mov	r2,	r3
00:002E 6E-F0                    2835   	push	xr0
00:0030 01-F0'00-00'             2836   	bl	__fildu8sw
00:0034 9A 00                    2837   	mov	r0,	#09ah
00:0036 99 01                    2838   	mov	r1,	#099h
00:0038 99 02                    2839   	mov	r2,	#099h
00:003A 3F 03                    2840   	mov	r3,	#03fh
00:003C 6E-F0                    2841   	push	xr0
00:003E 01-F0'00-00'             2842   	bl	__fdivu8sw
00:0042 04 E1                    2843   	add	sp,	#4 
00:0044 2E-F0                    2844   	pop	xr0
00:0046 13-90 00-00'             2845   	st	er0,	NEAR _flSensorOut
00:004A 13-92 00-00'             2846   	st	er2,	NEAR _flSensorOut+02h
                                 2847   
                                 2848   ;;	LEDOUT(ReverseBits(uniRawSensorOut._ucharArr[0]));
                                 2849   CLINEA 0000H 0000H 0479H 0002H 0033H
00:004E 10-90 00-00'             2850   	l	r0,	NEAR _uniRawSensorOut
00:0052 01-F0'00-00'             2851   	bl	_ReverseBits
00:0056 11-90 60-F2              2852   	st	r0,	0f260h
                                 2853   
                                 2854   ;;	printf(ESC_ERASE2END "BH1710FVC> Ambient Light = %lu[lx]" ESC_SOL, (unsigned long)flSensorOut[0]);
                                 2855   CLINEA 0000H 0001H 047AH 0002H 0063H
00:005A 12-90 00-00'             2856   	l	er0,	NEAR _flSensorOut
00:005E 12-92 00-00'             2857   	l	er2,	NEAR _flSensorOut+02h
00:0062 6E-F0                    2858   	push	xr0
00:0064 01-F0'00-00'             2859   	bl	__ftolu8sw
00:0068 2E-F0                    2860   	pop	xr0
00:006A 6E-F0                    2861   	push	xr0
00:006C 00'00                    2862   	mov	r0,	#BYTE1 OFFSET $$S180
00:006E 00'01                    2863   	mov	r1,	#BYTE2 OFFSET $$S180
00:0070 5E-F0                    2864   	push	er0
00:0072 01-F0'00-00'             2865   	bl	_printf_n
00:0076 06 E1                    2866   	add	sp,	#6 
                                 2867   CBLOCKEND 206 2 1147
                                 2868   
                                 2869   ;;}
                                 2870   CLINEA 0000H 0001H 047BH 0001H 0001H
00:0078 8E-F2                    2871   	pop	pc
                                 2872   CBLOCKEND 206 1 1147
                                 2873   CFUNCTIONEND 206
                                 2874   
                                 2875   
  --------------------------     2876   	rseg $$MainOp_Ambient_Light_Sensor_7$main
                                 2877   CFUNCTION 207
                                 2878   
00:0000                          2879   _MainOp_Ambient_Light_Sensor_7	:
                                 2880   CBLOCK 207 1 1160
                                 2881   
                                 2882   ;;{
                                 2883   CLINEA 0000H 0001H 0488H 0001H 0001H
00:0000 CE-F8                    2884   	push	lr
00:0002 6E-F4                    2885   	push	xr4
                                 2886   CBLOCK 207 2 1160
                                 2887   CRET 0004H
                                 2888   
                                 2889   ;;	I2C_Read(BH17xxFVC_ADDR_2, NULL, 0, uniRawSensorOut._ucharArr, 4);
                                 2890   CLINEA 0000H 0001H 048EH 0002H 0043H
00:0004 04 00                    2891   	mov	r0,	#04h
00:0006 4E-F0                    2892   	push	r0
00:0008 00'00                    2893   	mov	r0,	#BYTE1 OFFSET _uniRawSensorOut
00:000A 00'01                    2894   	mov	r1,	#BYTE2 OFFSET _uniRawSensorOut
00:000C 5E-F0                    2895   	push	er0
00:000E 00 00                    2896   	mov	r0,	#00h
00:0010 4E-F0                    2897   	push	r0
00:0012 00 E2                    2898   	mov	er2,	#0 
00:0014 29 00                    2899   	mov	r0,	#029h
00:0016 01-F0'00-00'             2900   	bl	_I2C_Read
00:001A 06 E1                    2901   	add	sp,	#6 
                                 2902   
                                 2903   ;;	flSensorOut[0] = (float)uniRawSensorOut._uintArr[1]/uniRawSensorOut._uintArr[0];
                                 2904   CLINEA 0000H 0001H 0495H 0002H 0051H
00:001C 12-90 00-00'             2905   	l	er0,	NEAR _uniRawSensorOut+02h
00:0020 00 E2                    2906   	mov	er2,	#0 
00:0022 6E-F0                    2907   	push	xr0
00:0024 01-F0'00-00'             2908   	bl	__fuldu8sw
00:0028 2E-F0                    2909   	pop	xr0
00:002A 12-94 00-00'             2910   	l	er4,	NEAR _uniRawSensorOut
00:002E 00 E6                    2911   	mov	er6,	#0 
00:0030 6E-F4                    2912   	push	xr4
00:0032 01-F0'00-00'             2913   	bl	__fuldu8sw
00:0036 2E-F4                    2914   	pop	xr4
00:0038 6E-F0                    2915   	push	xr0
00:003A 6E-F4                    2916   	push	xr4
00:003C 01-F0'00-00'             2917   	bl	__fdivu8sw
00:0040 04 E1                    2918   	add	sp,	#4 
00:0042 2E-F0                    2919   	pop	xr0
00:0044 13-90 00-00'             2920   	st	er0,	NEAR _flSensorOut
00:0048 13-92 00-00'             2921   	st	er2,	NEAR _flSensorOut+02h
                                 2922   
                                 2923   ;;	if(flSensorOut[0]<0.26f)
                                 2924   CLINEA 0000H 0001H 0496H 0002H 0019H
00:004C 6E-F0                    2925   	push	xr0
00:004E B8 00                    2926   	mov	r0,	#0b8h
00:0050 1E 01                    2927   	mov	r1,	#01eh
00:0052 85 02                    2928   	mov	r2,	#085h
00:0054 3E 03                    2929   	mov	r3,	#03eh
00:0056 6E-F0                    2930   	push	xr0
00:0058 01-F0'00-00'             2931   	bl	__fcmpu8sw
00:005C 08 E1                    2932   	add	sp,	#8 
00:005E 0B-A0                    2933   	mov	psw,	r0
00:0060 36 C0                    2934   	bge	_$L182
                                 2935   
                                 2936   ;;		flSensorOut[0] = (1.290f*uniRawSensorOut._uintArr[0]-2.733f*uniRawSensorOut._uintArr[1])/1*100/218;
                                 2937   CLINEA 0000H 0001H 0497H 0003H 0065H
00:0062 12-90 00-00'             2938   	l	er0,	NEAR _uniRawSensorOut
00:0066 00 E2                    2939   	mov	er2,	#0 
00:0068 6E-F0                    2940   	push	xr0
00:006A 01-F0'00-00'             2941   	bl	__fuldu8sw
00:006E B8 00                    2942   	mov	r0,	#0b8h
00:0070 1E 01                    2943   	mov	r1,	#01eh
00:0072 A5 02                    2944   	mov	r2,	#0a5h
00:0074 3F 03                    2945   	mov	r3,	#03fh
00:0076 6E-F0                    2946   	push	xr0
00:0078 01-F0'00-00'             2947   	bl	__fmulu8sw
00:007C 04 E1                    2948   	add	sp,	#4 
00:007E 2E-F4                    2949   	pop	xr4
00:0080 12-90 00-00'             2950   	l	er0,	NEAR _uniRawSensorOut+02h
00:0084 00 E2                    2951   	mov	er2,	#0 
00:0086 6E-F0                    2952   	push	xr0
00:0088 01-F0'00-00'             2953   	bl	__fuldu8sw
00:008C 79 00                    2954   	mov	r0,	#079h
00:008E E9 01                    2955   	mov	r1,	#0e9h
00:0090 2E 02                    2956   	mov	r2,	#02eh
00:0092 40 03                    2957   	mov	r3,	#040h
00:0094 6E-F0                    2958   	push	xr0
00:0096 01-F0'00-00'             2959   	bl	__fmulu8sw
00:009A 04 E1                    2960   	add	sp,	#4 
00:009C 2E-F0                    2961   	pop	xr0
00:009E 7E-F0                    2962   	push	qr0
00:00A0 01-F0'00-00'             2963   	bl	__fsubu8sw
00:00A4 04 E1                    2964   	add	sp,	#4 
00:00A6 00 E0                    2965   	mov	er0,	#0 
00:00A8 C8 02                    2966   	mov	r2,	#0c8h
00:00AA 42 03                    2967   	mov	r3,	#042h
00:00AC 6E-F0                    2968   	push	xr0
00:00AE 01-F0'00-00'             2969   	bl	__fmulu8sw
00:00B2 04 E1                    2970   	add	sp,	#4 
00:00B4 5A 02                    2971   	mov	r2,	#05ah
00:00B6 43 03                    2972   	mov	r3,	#043h
00:00B8 6E-F0                    2973   	push	xr0
00:00BA 01-F0'00-00'             2974   	bl	__fdivu8sw
00:00BE 04 E1                    2975   	add	sp,	#4 
00:00C0 2E-F0                    2976   	pop	xr0
00:00C2 13-90 00-00'             2977   	st	er0,	NEAR _flSensorOut
00:00C6 13-92 00-00'             2978   	st	er2,	NEAR _flSensorOut+02h
                                 2979   
                                 2980   ;;	else if(flSensorOut[0]<0.55f)
                                 2981   CLINEA 0000H 0001H 0498H 0002H 001EH
00:00CA 00-F0'00-00'             2982   	b	_$L193
00:00CE                          2983   _$L182 :
00:00CE 12-90 00-00'             2984   	l	er0,	NEAR _flSensorOut
00:00D2 12-92 00-00'             2985   	l	er2,	NEAR _flSensorOut+02h
00:00D6 6E-F0                    2986   	push	xr0
00:00D8 CD 00                    2987   	mov	r0,	#0cdh
00:00DA CC 01                    2988   	mov	r1,	#0cch
00:00DC 0C 02                    2989   	mov	r2,	#0ch
00:00DE 3F 03                    2990   	mov	r3,	#03fh
00:00E0 6E-F0                    2991   	push	xr0
00:00E2 01-F0'00-00'             2992   	bl	__fcmpu8sw
00:00E6 08 E1                    2993   	add	sp,	#8 
00:00E8 0B-A0                    2994   	mov	psw,	r0
00:00EA 36 C0                    2995   	bge	_$L185
                                 2996   
                                 2997   ;;		flSensorOut[0] = (0.795f*uniRawSensorOut._uintArr[0]-0.859f*uniRawSensorOut._uintArr[1])/1*100/218;
                                 2998   CLINEA 0000H 0001H 0499H 0003H 0065H
00:00EC 12-90 00-00'             2999   	l	er0,	NEAR _uniRawSensorOut
00:00F0 00 E2                    3000   	mov	er2,	#0 
00:00F2 6E-F0                    3001   	push	xr0
00:00F4 01-F0'00-00'             3002   	bl	__fuldu8sw
00:00F8 1F 00                    3003   	mov	r0,	#01fh
00:00FA 85 01                    3004   	mov	r1,	#085h
00:00FC 4B 02                    3005   	mov	r2,	#04bh
00:00FE 3F 03                    3006   	mov	r3,	#03fh
00:0100 6E-F0                    3007   	push	xr0
00:0102 01-F0'00-00'             3008   	bl	__fmulu8sw
00:0106 04 E1                    3009   	add	sp,	#4 
00:0108 2E-F4                    3010   	pop	xr4
00:010A 12-90 00-00'             3011   	l	er0,	NEAR _uniRawSensorOut+02h
00:010E 00 E2                    3012   	mov	er2,	#0 
00:0110 6E-F0                    3013   	push	xr0
00:0112 01-F0'00-00'             3014   	bl	__fuldu8sw
00:0116 6D 00                    3015   	mov	r0,	#06dh
00:0118 E7 01                    3016   	mov	r1,	#0e7h
00:011A 5B 02                    3017   	mov	r2,	#05bh
00:011C 3F 03                    3018   	mov	r3,	#03fh
00:011E 6E-F0                    3019   	push	xr0
00:0120 01-F0'00-00'             3020   	bl	__fmulu8sw
00:0124 04 E1                    3021   	add	sp,	#4 
00:0126 2E-F0                    3022   	pop	xr0
00:0128 7E-F0                    3023   	push	qr0
00:012A 01-F0'00-00'             3024   	bl	__fsubu8sw
00:012E 04 E1                    3025   	add	sp,	#4 
00:0130 00 E0                    3026   	mov	er0,	#0 
00:0132 C8 02                    3027   	mov	r2,	#0c8h
00:0134 42 03                    3028   	mov	r3,	#042h
00:0136 6E-F0                    3029   	push	xr0
00:0138 01-F0'00-00'             3030   	bl	__fmulu8sw
00:013C 04 E1                    3031   	add	sp,	#4 
00:013E 5A 02                    3032   	mov	r2,	#05ah
00:0140 43 03                    3033   	mov	r3,	#043h
00:0142 6E-F0                    3034   	push	xr0
00:0144 01-F0'00-00'             3035   	bl	__fdivu8sw
00:0148 04 E1                    3036   	add	sp,	#4 
00:014A 2E-F0                    3037   	pop	xr0
00:014C 13-90 00-00'             3038   	st	er0,	NEAR _flSensorOut
00:0150 13-92 00-00'             3039   	st	er2,	NEAR _flSensorOut+02h
                                 3040   
                                 3041   ;;	else if(flSensorOut[0]<1.09f)
                                 3042   CLINEA 0000H 0001H 049AH 0002H 001EH
00:0154 00-F0'00-00'             3043   	b	_$L193
00:0158                          3044   _$L185 :
00:0158 12-90 00-00'             3045   	l	er0,	NEAR _flSensorOut
00:015C 12-92 00-00'             3046   	l	er2,	NEAR _flSensorOut+02h
00:0160 6E-F0                    3047   	push	xr0
00:0162 1F 00                    3048   	mov	r0,	#01fh
00:0164 85 01                    3049   	mov	r1,	#085h
00:0166 8B 02                    3050   	mov	r2,	#08bh
00:0168 3F 03                    3051   	mov	r3,	#03fh
00:016A 6E-F0                    3052   	push	xr0
00:016C 01-F0'00-00'             3053   	bl	__fcmpu8sw
00:0170 08 E1                    3054   	add	sp,	#8 
00:0172 0B-A0                    3055   	mov	psw,	r0
00:0174 36 C0                    3056   	bge	_$L188
                                 3057   
                                 3058   ;;		flSensorOut[0] = (0.510f*uniRawSensorOut._uintArr[0]-0.345f*uniRawSensorOut._uintArr[1])/1*100/218;
                                 3059   CLINEA 0000H 0001H 049BH 0003H 0065H
00:0176 12-90 00-00'             3060   	l	er0,	NEAR _uniRawSensorOut
00:017A 00 E2                    3061   	mov	er2,	#0 
00:017C 6E-F0                    3062   	push	xr0
00:017E 01-F0'00-00'             3063   	bl	__fuldu8sw
00:0182 5C 00                    3064   	mov	r0,	#05ch
00:0184 8F 01                    3065   	mov	r1,	#08fh
00:0186 02 02                    3066   	mov	r2,	#02h
00:0188 3F 03                    3067   	mov	r3,	#03fh
00:018A 6E-F0                    3068   	push	xr0
00:018C 01-F0'00-00'             3069   	bl	__fmulu8sw
00:0190 04 E1                    3070   	add	sp,	#4 
00:0192 2E-F4                    3071   	pop	xr4
00:0194 12-90 00-00'             3072   	l	er0,	NEAR _uniRawSensorOut+02h
00:0198 00 E2                    3073   	mov	er2,	#0 
00:019A 6E-F0                    3074   	push	xr0
00:019C 01-F0'00-00'             3075   	bl	__fuldu8sw
00:01A0 D7 00                    3076   	mov	r0,	#0d7h
00:01A2 A3 01                    3077   	mov	r1,	#0a3h
00:01A4 B0 02                    3078   	mov	r2,	#0b0h
00:01A6 3E 03                    3079   	mov	r3,	#03eh
00:01A8 6E-F0                    3080   	push	xr0
00:01AA 01-F0'00-00'             3081   	bl	__fmulu8sw
00:01AE 04 E1                    3082   	add	sp,	#4 
00:01B0 2E-F0                    3083   	pop	xr0
00:01B2 7E-F0                    3084   	push	qr0
00:01B4 01-F0'00-00'             3085   	bl	__fsubu8sw
00:01B8 04 E1                    3086   	add	sp,	#4 
00:01BA 00 E0                    3087   	mov	er0,	#0 
00:01BC C8 02                    3088   	mov	r2,	#0c8h
00:01BE 42 03                    3089   	mov	r3,	#042h
00:01C0 6E-F0                    3090   	push	xr0
00:01C2 01-F0'00-00'             3091   	bl	__fmulu8sw
00:01C6 04 E1                    3092   	add	sp,	#4 
00:01C8 5A 02                    3093   	mov	r2,	#05ah
00:01CA 43 03                    3094   	mov	r3,	#043h
00:01CC 6E-F0                    3095   	push	xr0
00:01CE 01-F0'00-00'             3096   	bl	__fdivu8sw
00:01D2 04 E1                    3097   	add	sp,	#4 
00:01D4 2E-F0                    3098   	pop	xr0
00:01D6 13-90 00-00'             3099   	st	er0,	NEAR _flSensorOut
00:01DA 13-92 00-00'             3100   	st	er2,	NEAR _flSensorOut+02h
                                 3101   
                                 3102   ;;	else if(flSensorOut[0]<2.13f)
                                 3103   CLINEA 0000H 0001H 049CH 0002H 001EH
00:01DE 00-F0'00-00'             3104   	b	_$L193
00:01E2                          3105   _$L188 :
00:01E2 12-90 00-00'             3106   	l	er0,	NEAR _flSensorOut
00:01E6 12-92 00-00'             3107   	l	er2,	NEAR _flSensorOut+02h
00:01EA 6E-F0                    3108   	push	xr0
00:01EC EC 00                    3109   	mov	r0,	#0ech
00:01EE 51 01                    3110   	mov	r1,	#051h
00:01F0 08 02                    3111   	mov	r2,	#08h
00:01F2 40 03                    3112   	mov	r3,	#040h
00:01F4 6E-F0                    3113   	push	xr0
00:01F6 01-F0'00-00'             3114   	bl	__fcmpu8sw
00:01FA 08 E1                    3115   	add	sp,	#8 
00:01FC 0B-A0                    3116   	mov	psw,	r0
00:01FE 35 C0                    3117   	bge	_$L191
                                 3118   
                                 3119   ;;		flSensorOut[0] = (0.276f*uniRawSensorOut._uintArr[0]-0.130f*uniRawSensorOut._uintArr[1])/1*100/218;
                                 3120   CLINEA 0000H 0001H 049DH 0003H 0065H
00:0200 12-90 00-00'             3121   	l	er0,	NEAR _uniRawSensorOut
00:0204 00 E2                    3122   	mov	er2,	#0 
00:0206 6E-F0                    3123   	push	xr0
00:0208 01-F0'00-00'             3124   	bl	__fuldu8sw
00:020C DF 00                    3125   	mov	r0,	#0dfh
00:020E 4F 01                    3126   	mov	r1,	#04fh
00:0210 8D 02                    3127   	mov	r2,	#08dh
00:0212 3E 03                    3128   	mov	r3,	#03eh
00:0214 6E-F0                    3129   	push	xr0
00:0216 01-F0'00-00'             3130   	bl	__fmulu8sw
00:021A 04 E1                    3131   	add	sp,	#4 
00:021C 2E-F4                    3132   	pop	xr4
00:021E 12-90 00-00'             3133   	l	er0,	NEAR _uniRawSensorOut+02h
00:0222 00 E2                    3134   	mov	er2,	#0 
00:0224 6E-F0                    3135   	push	xr0
00:0226 01-F0'00-00'             3136   	bl	__fuldu8sw
00:022A B8 00                    3137   	mov	r0,	#0b8h
00:022C 1E 01                    3138   	mov	r1,	#01eh
00:022E 05 02                    3139   	mov	r2,	#05h
00:0230 3E 03                    3140   	mov	r3,	#03eh
00:0232 6E-F0                    3141   	push	xr0
00:0234 01-F0'00-00'             3142   	bl	__fmulu8sw
00:0238 04 E1                    3143   	add	sp,	#4 
00:023A 2E-F0                    3144   	pop	xr0
00:023C 7E-F0                    3145   	push	qr0
00:023E 01-F0'00-00'             3146   	bl	__fsubu8sw
00:0242 04 E1                    3147   	add	sp,	#4 
00:0244 00 E0                    3148   	mov	er0,	#0 
00:0246 C8 02                    3149   	mov	r2,	#0c8h
00:0248 42 03                    3150   	mov	r3,	#042h
00:024A 6E-F0                    3151   	push	xr0
00:024C 01-F0'00-00'             3152   	bl	__fmulu8sw
00:0250 04 E1                    3153   	add	sp,	#4 
00:0252 5A 02                    3154   	mov	r2,	#05ah
00:0254 43 03                    3155   	mov	r3,	#043h
00:0256 6E-F0                    3156   	push	xr0
00:0258 01-F0'00-00'             3157   	bl	__fdivu8sw
00:025C 04 E1                    3158   	add	sp,	#4 
00:025E 2E-F0                    3159   	pop	xr0
00:0260 13-90 00-00'             3160   	st	er0,	NEAR _flSensorOut
00:0264 13-92 00-00'             3161   	st	er2,	NEAR _flSensorOut+02h
                                 3162   
                                 3163   ;;	else
                                 3164   CLINEA 0000H 0001H 049EH 0002H 0005H
00:0268 05 CE                    3165   	bal	_$L193
00:026A                          3166   _$L191 :
                                 3167   
                                 3168   ;;		flSensorOut[0] = 0;
                                 3169   CLINEA 0000H 0001H 049FH 0003H 0015H
00:026A 00 E0                    3170   	mov	er0,	#0 
00:026C 13-90 00-00'             3171   	st	er0,	NEAR _flSensorOut
00:0270 13-90 00-00'             3172   	st	er0,	NEAR _flSensorOut+02h
00:0274                          3173   _$L193 :
                                 3174   
                                 3175   ;;	LEDOUT(ReverseBits(uniRawSensorOut._ucharArr[1]));
                                 3176   CLINEA 0000H 0000H 04A1H 0002H 0033H
00:0274 10-90 00-00'             3177   	l	r0,	NEAR _uniRawSensorOut+01h
00:0278 01-F0'00-00'             3178   	bl	_ReverseBits
00:027C 11-90 60-F2              3179   	st	r0,	0f260h
                                 3180   
                                 3181   ;;	printf(ESC_ERASE2END "BH1730FVC> Ambient Light = %lu[lx]" ESC_SOL, (unsigned long)flSensorOut[0]);
                                 3182   CLINEA 0000H 0001H 04A2H 0002H 0063H
00:0280 12-90 00-00'             3183   	l	er0,	NEAR _flSensorOut
00:0284 12-92 00-00'             3184   	l	er2,	NEAR _flSensorOut+02h
00:0288 6E-F0                    3185   	push	xr0
00:028A 01-F0'00-00'             3186   	bl	__ftolu8sw
00:028E 2E-F0                    3187   	pop	xr0
00:0290 6E-F0                    3188   	push	xr0
00:0292 00'00                    3189   	mov	r0,	#BYTE1 OFFSET $$S194
00:0294 00'01                    3190   	mov	r1,	#BYTE2 OFFSET $$S194
00:0296 5E-F0                    3191   	push	er0
00:0298 01-F0'00-00'             3192   	bl	_printf_n
00:029C 06 E1                    3193   	add	sp,	#6 
                                 3194   CBLOCKEND 207 2 1187
                                 3195   
                                 3196   ;;}
                                 3197   CLINEA 0000H 0001H 04A3H 0001H 0001H
00:029E 2E-F4                    3198   	pop	xr4
00:02A0 8E-F2                    3199   	pop	pc
                                 3200   CBLOCKEND 207 1 1187
                                 3201   CFUNCTIONEND 207
                                 3202   
                                 3203   
  --------------------------     3204   	rseg $$MainOp_Ambient_Light_Sensor_8$main
                                 3205   CFUNCTION 208
                                 3206   
00:0000                          3207   _MainOp_Ambient_Light_Sensor_8	:
                                 3208   CBLOCK 208 1 1200
                                 3209   
                                 3210   ;;{	
                                 3211   CLINEA 0000H 0001H 04B0H 0001H 0002H
00:0000 CE-F8                    3212   	push	lr
                                 3213   CBLOCK 208 2 1200
                                 3214   CRET 0000H
                                 3215   
                                 3216   ;;	I2C_Read(BH17xxFVC_ADDR_1, NULL, 0, uniRawSensorOut._ucharArr, 2);
                                 3217   CLINEA 0000H 0001H 04B5H 0002H 0043H
00:0002 02 00                    3218   	mov	r0,	#02h
00:0004 4E-F0                    3219   	push	r0
00:0006 00'00                    3220   	mov	r0,	#BYTE1 OFFSET _uniRawSensorOut
00:0008 00'01                    3221   	mov	r1,	#BYTE2 OFFSET _uniRawSensorOut
00:000A 5E-F0                    3222   	push	er0
00:000C 00 00                    3223   	mov	r0,	#00h
00:000E 4E-F0                    3224   	push	r0
00:0010 00 E2                    3225   	mov	er2,	#0 
00:0012 23 00                    3226   	mov	r0,	#023h
00:0014 01-F0'00-00'             3227   	bl	_I2C_Read
00:0018 06 E1                    3228   	add	sp,	#6 
                                 3229   
                                 3230   ;;	flSensorOut[0] = (uniRawSensorOut._ucharArr[0]<<8|uniRawSensorOut._ucharArr[1])/1.2f;
                                 3231   CLINEA 0000H 0001H 04B9H 0002H 0056H
00:001A 10-90 00-00'             3232   	l	r0,	NEAR _uniRawSensorOut
00:001E 00 01                    3233   	mov	r1,	#00h
00:0020 00-83                    3234   	mov	r3,	r0
00:0022 10-90 00-00'             3235   	l	r0,	NEAR _uniRawSensorOut+01h
00:0026 33-81                    3236   	or	r1,	r3
00:0028 10-82                    3237   	mov	r2,	r1
00:002A 2F-83                    3238   	extbw	er2
00:002C 30-82                    3239   	mov	r2,	r3
00:002E 6E-F0                    3240   	push	xr0
00:0030 01-F0'00-00'             3241   	bl	__fildu8sw
00:0034 9A 00                    3242   	mov	r0,	#09ah
00:0036 99 01                    3243   	mov	r1,	#099h
00:0038 99 02                    3244   	mov	r2,	#099h
00:003A 3F 03                    3245   	mov	r3,	#03fh
00:003C 6E-F0                    3246   	push	xr0
00:003E 01-F0'00-00'             3247   	bl	__fdivu8sw
00:0042 04 E1                    3248   	add	sp,	#4 
00:0044 2E-F0                    3249   	pop	xr0
00:0046 13-90 00-00'             3250   	st	er0,	NEAR _flSensorOut
00:004A 13-92 00-00'             3251   	st	er2,	NEAR _flSensorOut+02h
                                 3252   
                                 3253   ;;	LEDOUT(ReverseBits(uniRawSensorOut._ucharArr[0]));
                                 3254   CLINEA 0000H 0000H 04BBH 0002H 0033H
00:004E 10-90 00-00'             3255   	l	r0,	NEAR _uniRawSensorOut
00:0052 01-F0'00-00'             3256   	bl	_ReverseBits
00:0056 11-90 60-F2              3257   	st	r0,	0f260h
                                 3258   
                                 3259   ;;	printf(ESC_ERASE2END "BH1721FVC> Ambient Light = %lu[lx]" ESC_SOL, (unsigned long)flSensorOut[0]);
                                 3260   CLINEA 0000H 0001H 04BCH 0002H 0063H
00:005A 12-90 00-00'             3261   	l	er0,	NEAR _flSensorOut
00:005E 12-92 00-00'             3262   	l	er2,	NEAR _flSensorOut+02h
00:0062 6E-F0                    3263   	push	xr0
00:0064 01-F0'00-00'             3264   	bl	__ftolu8sw
00:0068 2E-F0                    3265   	pop	xr0
00:006A 6E-F0                    3266   	push	xr0
00:006C 00'00                    3267   	mov	r0,	#BYTE1 OFFSET $$S196
00:006E 00'01                    3268   	mov	r1,	#BYTE2 OFFSET $$S196
00:0070 5E-F0                    3269   	push	er0
00:0072 01-F0'00-00'             3270   	bl	_printf_n
00:0076 06 E1                    3271   	add	sp,	#6 
                                 3272   CBLOCKEND 208 2 1213
                                 3273   
                                 3274   ;;}
                                 3275   CLINEA 0000H 0001H 04BDH 0001H 0001H
00:0078 8E-F2                    3276   	pop	pc
                                 3277   CBLOCKEND 208 1 1213
                                 3278   CFUNCTIONEND 208
                                 3279   
                                 3280   
  --------------------------     3281   	rseg $$MainOp_Ambient_Light_Sensor_9$main
                                 3282   CFUNCTION 209
                                 3283   
00:0000                          3284   _MainOp_Ambient_Light_Sensor_9	:
                                 3285   CBLOCK 209 1 1226
                                 3286   
                                 3287   ;;{
                                 3288   CLINEA 0000H 0001H 04CAH 0001H 0001H
00:0000 CE-F8                    3289   	push	lr
                                 3290   CBLOCK 209 2 1226
                                 3291   CRET 0000H
                                 3292   
                                 3293   ;;	I2C_Read(BH17xxFVC_ADDR_2, NULL, 0, uniRawSensorOut._ucharArr, 2);
                                 3294   CLINEA 0000H 0001H 04D0H 0002H 0043H
00:0002 02 00                    3295   	mov	r0,	#02h
00:0004 4E-F0                    3296   	push	r0
00:0006 00'00                    3297   	mov	r0,	#BYTE1 OFFSET _uniRawSensorOut
00:0008 00'01                    3298   	mov	r1,	#BYTE2 OFFSET _uniRawSensorOut
00:000A 5E-F0                    3299   	push	er0
00:000C 00 00                    3300   	mov	r0,	#00h
00:000E 4E-F0                    3301   	push	r0
00:0010 00 E2                    3302   	mov	er2,	#0 
00:0012 29 00                    3303   	mov	r0,	#029h
00:0014 01-F0'00-00'             3304   	bl	_I2C_Read
00:0018 06 E1                    3305   	add	sp,	#6 
                                 3306   
                                 3307   ;;	flSensorOut[0] = uniRawSensorOut._uint;
                                 3308   CLINEA 0000H 0001H 04D4H 0002H 0028H
00:001A 12-90 00-00'             3309   	l	er0,	NEAR _uniRawSensorOut
00:001E 00 E2                    3310   	mov	er2,	#0 
00:0020 6E-F0                    3311   	push	xr0
00:0022 01-F0'00-00'             3312   	bl	__fuldu8sw
00:0026 2E-F0                    3313   	pop	xr0
00:0028 13-90 00-00'             3314   	st	er0,	NEAR _flSensorOut
00:002C 13-92 00-00'             3315   	st	er2,	NEAR _flSensorOut+02h
                                 3316   
                                 3317   ;;	LEDOUT(ReverseBits(uniRawSensorOut._ucharArr[1]));
                                 3318   CLINEA 0000H 0000H 04D6H 0002H 0033H
00:0030 10-90 00-00'             3319   	l	r0,	NEAR _uniRawSensorOut+01h
00:0034 01-F0'00-00'             3320   	bl	_ReverseBits
00:0038 11-90 60-F2              3321   	st	r0,	0f260h
                                 3322   
                                 3323   ;;	printf(ESC_ERASE2END "BH1780GLI> Ambient Light = %lu[lx]" ESC_SOL, (unsigned long)flSensorOut[0]);
                                 3324   CLINEA 0000H 0001H 04D7H 0002H 0063H
00:003C 12-90 00-00'             3325   	l	er0,	NEAR _flSensorOut
00:0040 12-92 00-00'             3326   	l	er2,	NEAR _flSensorOut+02h
00:0044 6E-F0                    3327   	push	xr0
00:0046 01-F0'00-00'             3328   	bl	__ftolu8sw
00:004A 2E-F0                    3329   	pop	xr0
00:004C 6E-F0                    3330   	push	xr0
00:004E 00'00                    3331   	mov	r0,	#BYTE1 OFFSET $$S198
00:0050 00'01                    3332   	mov	r1,	#BYTE2 OFFSET $$S198
00:0052 5E-F0                    3333   	push	er0
00:0054 01-F0'00-00'             3334   	bl	_printf_n
00:0058 06 E1                    3335   	add	sp,	#6 
                                 3336   CBLOCKEND 209 2 1240
                                 3337   
                                 3338   ;;}
                                 3339   CLINEA 0000H 0001H 04D8H 0001H 0001H
00:005A 8E-F2                    3340   	pop	pc
                                 3341   CBLOCKEND 209 1 1240
                                 3342   CFUNCTIONEND 209
                                 3343   
                                 3344   
  --------------------------     3345   	rseg $$MainOp_UV_Sensor_10$main
                                 3346   CFUNCTION 210
                                 3347   
00:0000                          3348   _MainOp_UV_Sensor_10	:
                                 3349   CBLOCK 210 1 1253
                                 3350   
                                 3351   ;;{
                                 3352   CLINEA 0000H 0001H 04E5H 0001H 0001H
00:0000 CE-F8                    3353   	push	lr
                                 3354   CBLOCK 210 2 1253
                                 3355   CRET 0000H
                                 3356   
                                 3357   ;;	uniRawSensorOut._uint = ADC_Read(1);
                                 3358   CLINEA 0000H 0000H 04E6H 0002H 0025H
00:0002 01 00                    3359   	mov	r0,	#01h
00:0004 01-F0'00-00'             3360   	bl	_ADC_Read
00:0008 13-90 00-00'             3361   	st	er0,	NEAR _uniRawSensorOut
                                 3362   
                                 3363   ;;	flSensorOut[0] = uniRawSensorOut._uint*3.3f/1023;
                                 3364   CLINEA 0000H 0001H 04E8H 0002H 0032H
00:000C 00 E2                    3365   	mov	er2,	#0 
00:000E 6E-F0                    3366   	push	xr0
00:0010 01-F0'00-00'             3367   	bl	__fuldu8sw
00:0014 33 00                    3368   	mov	r0,	#033h
00:0016 33 01                    3369   	mov	r1,	#033h
00:0018 53 02                    3370   	mov	r2,	#053h
00:001A 40 03                    3371   	mov	r3,	#040h
00:001C 6E-F0                    3372   	push	xr0
00:001E 01-F0'00-00'             3373   	bl	__fmulu8sw
00:0022 04 E1                    3374   	add	sp,	#4 
00:0024 00 00                    3375   	mov	r0,	#00h
00:0026 C0 01                    3376   	mov	r1,	#0c0h
00:0028 7F 02                    3377   	mov	r2,	#07fh
00:002A 44 03                    3378   	mov	r3,	#044h
00:002C 6E-F0                    3379   	push	xr0
00:002E 01-F0'00-00'             3380   	bl	__fdivu8sw
00:0032 04 E1                    3381   	add	sp,	#4 
00:0034 2E-F0                    3382   	pop	xr0
00:0036 13-90 00-00'             3383   	st	er0,	NEAR _flSensorOut
00:003A 13-92 00-00'             3384   	st	er2,	NEAR _flSensorOut+02h
                                 3385   
                                 3386   ;;	flSensorOut[1] = Voltage2UVIntensity(flSensorOut[0]);
                                 3387   CLINEA 0000H 0001H 04EAH 0002H 0036H
00:003E 6E-F0                    3388   	push	xr0
00:0040 CD 00                    3389   	mov	r0,	#0cdh
00:0042 CC 01                    3390   	mov	r1,	#0cch
00:0044 0C 02                    3391   	mov	r2,	#0ch
00:0046 C0 03                    3392   	mov	r3,	#0c0h
00:0048 6E-F0                    3393   	push	xr0
00:004A 01-F0'00-00'             3394   	bl	__faddu8sw
00:004E 04 E1                    3395   	add	sp,	#4 
00:0050 93 00                    3396   	mov	r0,	#093h
00:0052 18 01                    3397   	mov	r1,	#018h
00:0054 04 02                    3398   	mov	r2,	#04h
00:0056 3E 03                    3399   	mov	r3,	#03eh
00:0058 6E-F0                    3400   	push	xr0
00:005A 01-F0'00-00'             3401   	bl	__fdivu8sw
00:005E 04 E1                    3402   	add	sp,	#4 
00:0060 00 E0                    3403   	mov	er0,	#0 
00:0062 20 02                    3404   	mov	r2,	#020h
00:0064 41 03                    3405   	mov	r3,	#041h
00:0066 6E-F0                    3406   	push	xr0
00:0068 01-F0'00-00'             3407   	bl	__faddu8sw
00:006C 04 E1                    3408   	add	sp,	#4 
00:006E 2E-F0                    3409   	pop	xr0
00:0070 13-90 00-00'             3410   	st	er0,	NEAR _flSensorOut+04h
00:0074 13-92 00-00'             3411   	st	er2,	NEAR _flSensorOut+06h
                                 3412   
                                 3413   ;;	LEDOUT(ReverseBits((unsigned char)(uniRawSensorOut._uint>>2)));
                                 3414   CLINEA 0000H 0000H 04ECH 0002H 0040H
00:0078 12-90 00-00'             3415   	l	er0,	NEAR _uniRawSensorOut
00:007C 2D-90                    3416   	srlc	r0,	#02h
00:007E 01-F0'00-00'             3417   	bl	_ReverseBits
00:0082 11-90 60-F2              3418   	st	r0,	0f260h
                                 3419   
                                 3420   ;;	printf( "\n\rML8511> UV Intensity \t\t\t= %.02f[mW/cm2]. \n\r\tVsenout \t\t\t= %.02f[V] \n\r" , flSensorOut[1], flSensorOut[0]);
                                 3421   CLINEA 0000H 0001H 04EDH 0002H 0081H
00:0086 12-90 00-00'             3422   	l	er0,	NEAR _flSensorOut
00:008A 12-92 00-00'             3423   	l	er2,	NEAR _flSensorOut+02h
00:008E 6E-F0                    3424   	push	xr0
00:0090 FC E1                    3425   	add	sp,	#-4
00:0092 01-F0'00-00'             3426   	bl	__ftodu8sw
00:0096 12-90 00-00'             3427   	l	er0,	NEAR _flSensorOut+04h
00:009A 12-92 00-00'             3428   	l	er2,	NEAR _flSensorOut+06h
00:009E 6E-F0                    3429   	push	xr0
00:00A0 FC E1                    3430   	add	sp,	#-4
00:00A2 01-F0'00-00'             3431   	bl	__ftodu8sw
00:00A6 00'00                    3432   	mov	r0,	#BYTE1 OFFSET $$S200
00:00A8 00'01                    3433   	mov	r1,	#BYTE2 OFFSET $$S200
00:00AA 5E-F0                    3434   	push	er0
00:00AC 01-F0'00-00'             3435   	bl	_printf_n
00:00B0 12 E1                    3436   	add	sp,	#18
                                 3437   CBLOCKEND 210 2 1262
                                 3438   
                                 3439   ;;}
                                 3440   CLINEA 0000H 0001H 04EEH 0001H 0001H
00:00B2 8E-F2                    3441   	pop	pc
                                 3442   CBLOCKEND 210 1 1262
                                 3443   CFUNCTIONEND 210
                                 3444   
                                 3445   
  --------------------------     3446   	rseg $$MainOp_ALS_PROX_Sensor_11$main
                                 3447   CFUNCTION 211
                                 3448   
00:0000                          3449   _MainOp_ALS_PROX_Sensor_11	:
                                 3450   CBLOCK 211 1 1275
                                 3451   
                                 3452   ;;{
                                 3453   CLINEA 0000H 0001H 04FBH 0001H 0001H
00:0000 CE-F8                    3454   	push	lr
00:0002 5E-F4                    3455   	push	er4
                                 3456   CBLOCK 211 2 1275
                                 3457   CRET 0002H
                                 3458   CLOCAL 46H 0002H 0026H 0002H "Prox" 02H 00H 08H
                                 3459   CLOCAL 46H 0002H 0024H 0002H "ALS" 02H 00H 08H
                                 3460   
                                 3461   ;;	I2C_Read(RPR0521_I2C_ADDR, &RPR0521_Prox_PS_LSB, 1, uniRawSensorOut._ucharArr, 8);
                                 3462   CLINEA 0000H 0001H 04FDH 0002H 0053H
00:0004 08 00                    3463   	mov	r0,	#08h
00:0006 4E-F0                    3464   	push	r0
00:0008 00'00                    3465   	mov	r0,	#BYTE1 OFFSET _uniRawSensorOut
00:000A 00'01                    3466   	mov	r1,	#BYTE2 OFFSET _uniRawSensorOut
00:000C 5E-F0                    3467   	push	er0
00:000E 01 00                    3468   	mov	r0,	#01h
00:0010 4E-F0                    3469   	push	r0
00:0012 00'02                    3470   	mov	r2,	#BYTE1 OFFSET _RPR0521_Prox_PS_LSB
00:0014 00'03                    3471   	mov	r3,	#BYTE2 OFFSET _RPR0521_Prox_PS_LSB
00:0016 38 00                    3472   	mov	r0,	#038h
00:0018 01-F0'00-00'             3473   	bl	_I2C_Read
00:001C 06 E1                    3474   	add	sp,	#6 
                                 3475   
                                 3476   ;;	Prox	= 	((unsigned short)uniRawSensorOut._ucharArr[0] | ((unsigned short)uniRawSensorOut._ucharArr[1])<<8);
                                 3477   CLINEA 0000H 0001H 04FEH 0002H 006CH
00:001E 10-90 00-00'             3478   	l	r0,	NEAR _uniRawSensorOut+01h
00:0022 00-81                    3479   	mov	r1,	r0
00:0024 00 00                    3480   	mov	r0,	#00h
00:0026 10-92 00-00'             3481   	l	r2,	NEAR _uniRawSensorOut
00:002A 23-80                    3482   	or	r0,	r2
00:002C 05-F4                    3483   	mov	er4,	er0
                                 3484   
                                 3485   ;;	ALS		= 	((unsigned short)uniRawSensorOut._ucharArr[2] | ((unsigned short)uniRawSensorOut._ucharArr[3])<<8);
                                 3486   CLINEA 0000H 0001H 04FFH 0002H 006CH
00:002E 10-92 00-00'             3487   	l	r2,	NEAR _uniRawSensorOut+02h
00:0032 10-90 00-00'             3488   	l	r0,	NEAR _uniRawSensorOut+03h
00:0036 00-81                    3489   	mov	r1,	r0
00:0038 00 00                    3490   	mov	r0,	#00h
00:003A 23-80                    3491   	or	r0,	r2
                                 3492   
                                 3493   ;;	printf( ESC_NEWLINE "RPR0521> Prox \t\t\t\t= %10lu[raw], \n\r\tALS \t\t\t\t= %10lu[raw]" ESC_NEWLINE, (long)Prox, (long)ALS);
                                 3494   CLINEA 0000H 0001H 0501H 0002H 007EH
00:003C 00 E2                    3495   	mov	er2,	#0 
00:003E 6E-F0                    3496   	push	xr0
00:0040 45-F0                    3497   	mov	er0,	er4
00:0042 6E-F0                    3498   	push	xr0
00:0044 00'00                    3499   	mov	r0,	#BYTE1 OFFSET $$S202
00:0046 00'01                    3500   	mov	r1,	#BYTE2 OFFSET $$S202
00:0048 5E-F0                    3501   	push	er0
00:004A 01-F0'00-00'             3502   	bl	_printf_n
00:004E 0A E1                    3503   	add	sp,	#10
                                 3504   CBLOCKEND 211 2 1282
                                 3505   
                                 3506   ;;}
                                 3507   CLINEA 0000H 0001H 0502H 0001H 0001H
00:0050 1E-F4                    3508   	pop	er4
00:0052 8E-F2                    3509   	pop	pc
                                 3510   CBLOCKEND 211 1 1282
                                 3511   CFUNCTIONEND 211
                                 3512   
                                 3513   
  --------------------------     3514   	rseg $$MainOp_KXG03_Sensor_12$main
                                 3515   CFUNCTION 212
                                 3516   
00:0000                          3517   _MainOp_KXG03_Sensor_12	:
                                 3518   CBLOCK 212 1 1295
                                 3519   
                                 3520   ;;{
                                 3521   CLINEA 0000H 0001H 050FH 0001H 0001H
00:0000 CE-F8                    3522   	push	lr
                                 3523   CBLOCK 212 2 1295
                                 3524   CRET 0000H
                                 3525   
                                 3526   ;;	I2C_Read(KXG03_I2C_ADDR, &KXG03_GYRO_XOUT_L, 1, uniRawSensorOut._ucharArr, 6);
                                 3527   CLINEA 0000H 0001H 0514H 0002H 004FH
00:0002 06 00                    3528   	mov	r0,	#06h
00:0004 4E-F0                    3529   	push	r0
00:0006 00'00                    3530   	mov	r0,	#BYTE1 OFFSET _uniRawSensorOut
00:0008 00'01                    3531   	mov	r1,	#BYTE2 OFFSET _uniRawSensorOut
00:000A 5E-F0                    3532   	push	er0
00:000C 01 00                    3533   	mov	r0,	#01h
00:000E 4E-F0                    3534   	push	r0
00:0010 00'02                    3535   	mov	r2,	#BYTE1 OFFSET _KXG03_GYRO_XOUT_L
00:0012 00'03                    3536   	mov	r3,	#BYTE2 OFFSET _KXG03_GYRO_XOUT_L
00:0014 4E 00                    3537   	mov	r0,	#04eh
00:0016 01-F0'00-00'             3538   	bl	_I2C_Read
00:001A 06 E1                    3539   	add	sp,	#6 
                                 3540   
                                 3541   ;;	flSensorOut[0] = (float)uniRawSensorOut._intArr[0]*2048/32768.0f;	// GX
                                 3542   CLINEA 0000H 0001H 0517H 0002H 0048H
00:001C 12-90 00-00'             3543   	l	er0,	NEAR _uniRawSensorOut
00:0020 10-82                    3544   	mov	r2,	r1
00:0022 2F-83                    3545   	extbw	er2
00:0024 30-82                    3546   	mov	r2,	r3
00:0026 6E-F0                    3547   	push	xr0
00:0028 01-F0'00-00'             3548   	bl	__fildu8sw
00:002C 00 E0                    3549   	mov	er0,	#0 
00:002E 00 02                    3550   	mov	r2,	#00h
00:0030 45 03                    3551   	mov	r3,	#045h
00:0032 6E-F0                    3552   	push	xr0
00:0034 01-F0'00-00'             3553   	bl	__fmulu8sw
00:0038 04 E1                    3554   	add	sp,	#4 
00:003A 47 03                    3555   	mov	r3,	#047h
00:003C 6E-F0                    3556   	push	xr0
00:003E 01-F0'00-00'             3557   	bl	__fdivu8sw
00:0042 04 E1                    3558   	add	sp,	#4 
00:0044 2E-F0                    3559   	pop	xr0
00:0046 13-90 00-00'             3560   	st	er0,	NEAR _flSensorOut
00:004A 13-92 00-00'             3561   	st	er2,	NEAR _flSensorOut+02h
                                 3562   
                                 3563   ;;	flSensorOut[1] = (float)uniRawSensorOut._intArr[1]*2048/32768.0f;	// GY
                                 3564   CLINEA 0000H 0001H 0518H 0002H 0048H
00:004E 12-90 00-00'             3565   	l	er0,	NEAR _uniRawSensorOut+02h
00:0052 10-82                    3566   	mov	r2,	r1
00:0054 2F-83                    3567   	extbw	er2
00:0056 30-82                    3568   	mov	r2,	r3
00:0058 6E-F0                    3569   	push	xr0
00:005A 01-F0'00-00'             3570   	bl	__fildu8sw
00:005E 00 E0                    3571   	mov	er0,	#0 
00:0060 00 02                    3572   	mov	r2,	#00h
00:0062 45 03                    3573   	mov	r3,	#045h
00:0064 6E-F0                    3574   	push	xr0
00:0066 01-F0'00-00'             3575   	bl	__fmulu8sw
00:006A 04 E1                    3576   	add	sp,	#4 
00:006C 47 03                    3577   	mov	r3,	#047h
00:006E 6E-F0                    3578   	push	xr0
00:0070 01-F0'00-00'             3579   	bl	__fdivu8sw
00:0074 04 E1                    3580   	add	sp,	#4 
00:0076 2E-F0                    3581   	pop	xr0
00:0078 13-90 00-00'             3582   	st	er0,	NEAR _flSensorOut+04h
00:007C 13-92 00-00'             3583   	st	er2,	NEAR _flSensorOut+06h
                                 3584   
                                 3585   ;;	flSensorOut[2] = (float)uniRawSensorOut._intArr[2]*2048/32768.0f;	// GZ
                                 3586   CLINEA 0000H 0001H 0519H 0002H 0048H
00:0080 12-90 00-00'             3587   	l	er0,	NEAR _uniRawSensorOut+04h
00:0084 10-82                    3588   	mov	r2,	r1
00:0086 2F-83                    3589   	extbw	er2
00:0088 30-82                    3590   	mov	r2,	r3
00:008A 6E-F0                    3591   	push	xr0
00:008C 01-F0'00-00'             3592   	bl	__fildu8sw
00:0090 00 E0                    3593   	mov	er0,	#0 
00:0092 00 02                    3594   	mov	r2,	#00h
00:0094 45 03                    3595   	mov	r3,	#045h
00:0096 6E-F0                    3596   	push	xr0
00:0098 01-F0'00-00'             3597   	bl	__fmulu8sw
00:009C 04 E1                    3598   	add	sp,	#4 
00:009E 47 03                    3599   	mov	r3,	#047h
00:00A0 6E-F0                    3600   	push	xr0
00:00A2 01-F0'00-00'             3601   	bl	__fdivu8sw
00:00A6 04 E1                    3602   	add	sp,	#4 
00:00A8 2E-F0                    3603   	pop	xr0
00:00AA 13-90 00-00'             3604   	st	er0,	NEAR _flSensorOut+08h
00:00AE 13-92 00-00'             3605   	st	er2,	NEAR _flSensorOut+0ah
                                 3606   
                                 3607   ;;		uniRawSensorOut._intArr[0], flSensorOut[0], uniRawSensorOut._intArr[1], flSensorOut[1], uniRawSensorOut._intArr[2], flSensorOut[2]);
                                 3608   CLINEA 0000H 0001H 051CH 0003H 0086H
00:00B2 6E-F0                    3609   	push	xr0
00:00B4 FC E1                    3610   	add	sp,	#-4
00:00B6 01-F0'00-00'             3611   	bl	__ftodu8sw
00:00BA 12-90 00-00'             3612   	l	er0,	NEAR _uniRawSensorOut+04h
00:00BE 5E-F0                    3613   	push	er0
00:00C0 12-90 00-00'             3614   	l	er0,	NEAR _flSensorOut+04h
00:00C4 12-92 00-00'             3615   	l	er2,	NEAR _flSensorOut+06h
00:00C8 6E-F0                    3616   	push	xr0
00:00CA FC E1                    3617   	add	sp,	#-4
00:00CC 01-F0'00-00'             3618   	bl	__ftodu8sw
00:00D0 12-90 00-00'             3619   	l	er0,	NEAR _uniRawSensorOut+02h
00:00D4 5E-F0                    3620   	push	er0
00:00D6 12-90 00-00'             3621   	l	er0,	NEAR _flSensorOut
00:00DA 12-92 00-00'             3622   	l	er2,	NEAR _flSensorOut+02h
00:00DE 6E-F0                    3623   	push	xr0
00:00E0 FC E1                    3624   	add	sp,	#-4
00:00E2 01-F0'00-00'             3625   	bl	__ftodu8sw
00:00E6 12-90 00-00'             3626   	l	er0,	NEAR _uniRawSensorOut
00:00EA 5E-F0                    3627   	push	er0
00:00EC 00'00                    3628   	mov	r0,	#BYTE1 OFFSET $$S204
00:00EE 00'01                    3629   	mov	r1,	#BYTE2 OFFSET $$S204
00:00F0 5E-F0                    3630   	push	er0
00:00F2 01-F0'00-00'             3631   	bl	_printf_n
00:00F6 20 E1                    3632   	add	sp,	#32
                                 3633   
                                 3634   ;;	I2C_Read(KXG03_I2C_ADDR, &KXG03_ACC_XOUT_L, 1, uniRawSensorOut._ucharArr, 6);
                                 3635   CLINEA 0000H 0001H 051FH 0002H 004EH
00:00F8 06 00                    3636   	mov	r0,	#06h
00:00FA 4E-F0                    3637   	push	r0
00:00FC 00'00                    3638   	mov	r0,	#BYTE1 OFFSET _uniRawSensorOut
00:00FE 00'01                    3639   	mov	r1,	#BYTE2 OFFSET _uniRawSensorOut
00:0100 5E-F0                    3640   	push	er0
00:0102 01 00                    3641   	mov	r0,	#01h
00:0104 4E-F0                    3642   	push	r0
00:0106 00'02                    3643   	mov	r2,	#BYTE1 OFFSET _KXG03_ACC_XOUT_L
00:0108 00'03                    3644   	mov	r3,	#BYTE2 OFFSET _KXG03_ACC_XOUT_L
00:010A 4E 00                    3645   	mov	r0,	#04eh
00:010C 01-F0'00-00'             3646   	bl	_I2C_Read
00:0110 06 E1                    3647   	add	sp,	#6 
                                 3648   
                                 3649   ;;	flSensorOut[0] = (float)uniRawSensorOut._intArr[0]*2/2048.0f;	// AX
                                 3650   CLINEA 0000H 0001H 0522H 0002H 0044H
00:0112 12-90 00-00'             3651   	l	er0,	NEAR _uniRawSensorOut
00:0116 10-82                    3652   	mov	r2,	r1
00:0118 2F-83                    3653   	extbw	er2
00:011A 30-82                    3654   	mov	r2,	r3
00:011C 6E-F0                    3655   	push	xr0
00:011E 01-F0'00-00'             3656   	bl	__fildu8sw
00:0122 00 E0                    3657   	mov	er0,	#0 
00:0124 00 02                    3658   	mov	r2,	#00h
00:0126 40 03                    3659   	mov	r3,	#040h
00:0128 6E-F0                    3660   	push	xr0
00:012A 01-F0'00-00'             3661   	bl	__fmulu8sw
00:012E 04 E1                    3662   	add	sp,	#4 
00:0130 45 03                    3663   	mov	r3,	#045h
00:0132 6E-F0                    3664   	push	xr0
00:0134 01-F0'00-00'             3665   	bl	__fdivu8sw
00:0138 04 E1                    3666   	add	sp,	#4 
00:013A 2E-F0                    3667   	pop	xr0
00:013C 13-90 00-00'             3668   	st	er0,	NEAR _flSensorOut
00:0140 13-92 00-00'             3669   	st	er2,	NEAR _flSensorOut+02h
                                 3670   
                                 3671   ;;	flSensorOut[1] = (float)uniRawSensorOut._intArr[1]*2/2048.0f;	// AY
                                 3672   CLINEA 0000H 0001H 0523H 0002H 0044H
00:0144 12-90 00-00'             3673   	l	er0,	NEAR _uniRawSensorOut+02h
00:0148 10-82                    3674   	mov	r2,	r1
00:014A 2F-83                    3675   	extbw	er2
00:014C 30-82                    3676   	mov	r2,	r3
00:014E 6E-F0                    3677   	push	xr0
00:0150 01-F0'00-00'             3678   	bl	__fildu8sw
00:0154 00 E0                    3679   	mov	er0,	#0 
00:0156 00 02                    3680   	mov	r2,	#00h
00:0158 40 03                    3681   	mov	r3,	#040h
00:015A 6E-F0                    3682   	push	xr0
00:015C 01-F0'00-00'             3683   	bl	__fmulu8sw
00:0160 04 E1                    3684   	add	sp,	#4 
00:0162 45 03                    3685   	mov	r3,	#045h
00:0164 6E-F0                    3686   	push	xr0
00:0166 01-F0'00-00'             3687   	bl	__fdivu8sw
00:016A 04 E1                    3688   	add	sp,	#4 
00:016C 2E-F0                    3689   	pop	xr0
00:016E 13-90 00-00'             3690   	st	er0,	NEAR _flSensorOut+04h
00:0172 13-92 00-00'             3691   	st	er2,	NEAR _flSensorOut+06h
                                 3692   
                                 3693   ;;	flSensorOut[2] = (float)uniRawSensorOut._intArr[2]*2/2048.0f;	// AZ
                                 3694   CLINEA 0000H 0001H 0524H 0002H 0044H
00:0176 12-90 00-00'             3695   	l	er0,	NEAR _uniRawSensorOut+04h
00:017A 10-82                    3696   	mov	r2,	r1
00:017C 2F-83                    3697   	extbw	er2
00:017E 30-82                    3698   	mov	r2,	r3
00:0180 6E-F0                    3699   	push	xr0
00:0182 01-F0'00-00'             3700   	bl	__fildu8sw
00:0186 00 E0                    3701   	mov	er0,	#0 
00:0188 00 02                    3702   	mov	r2,	#00h
00:018A 40 03                    3703   	mov	r3,	#040h
00:018C 6E-F0                    3704   	push	xr0
00:018E 01-F0'00-00'             3705   	bl	__fmulu8sw
00:0192 04 E1                    3706   	add	sp,	#4 
00:0194 45 03                    3707   	mov	r3,	#045h
00:0196 6E-F0                    3708   	push	xr0
00:0198 01-F0'00-00'             3709   	bl	__fdivu8sw
00:019C 04 E1                    3710   	add	sp,	#4 
00:019E 2E-F0                    3711   	pop	xr0
00:01A0 13-90 00-00'             3712   	st	er0,	NEAR _flSensorOut+08h
00:01A4 13-92 00-00'             3713   	st	er2,	NEAR _flSensorOut+0ah
                                 3714   
                                 3715   ;;		uniRawSensorOut._intArr[0], flSensorOut[0], uniRawSensorOut._intArr[1], flSensorOut[1], uniRawSensorOut._intArr[2], flSensorOut[2]);
                                 3716   CLINEA 0000H 0001H 0527H 0003H 0086H
00:01A8 6E-F0                    3717   	push	xr0
00:01AA FC E1                    3718   	add	sp,	#-4
00:01AC 01-F0'00-00'             3719   	bl	__ftodu8sw
00:01B0 12-90 00-00'             3720   	l	er0,	NEAR _uniRawSensorOut+04h
00:01B4 5E-F0                    3721   	push	er0
00:01B6 12-90 00-00'             3722   	l	er0,	NEAR _flSensorOut+04h
00:01BA 12-92 00-00'             3723   	l	er2,	NEAR _flSensorOut+06h
00:01BE 6E-F0                    3724   	push	xr0
00:01C0 FC E1                    3725   	add	sp,	#-4
00:01C2 01-F0'00-00'             3726   	bl	__ftodu8sw
00:01C6 12-90 00-00'             3727   	l	er0,	NEAR _uniRawSensorOut+02h
00:01CA 5E-F0                    3728   	push	er0
00:01CC 12-90 00-00'             3729   	l	er0,	NEAR _flSensorOut
00:01D0 12-92 00-00'             3730   	l	er2,	NEAR _flSensorOut+02h
00:01D4 6E-F0                    3731   	push	xr0
00:01D6 FC E1                    3732   	add	sp,	#-4
00:01D8 01-F0'00-00'             3733   	bl	__ftodu8sw
00:01DC 12-90 00-00'             3734   	l	er0,	NEAR _uniRawSensorOut
00:01E0 5E-F0                    3735   	push	er0
00:01E2 00'00                    3736   	mov	r0,	#BYTE1 OFFSET $$S205
00:01E4 00'01                    3737   	mov	r1,	#BYTE2 OFFSET $$S205
00:01E6 5E-F0                    3738   	push	er0
00:01E8 01-F0'00-00'             3739   	bl	_printf_n
00:01EC 20 E1                    3740   	add	sp,	#32
                                 3741   CBLOCKEND 212 2 1321
                                 3742   
                                 3743   ;;}
                                 3744   CLINEA 0000H 0001H 0529H 0001H 0001H
00:01EE 8E-F2                    3745   	pop	pc
                                 3746   CBLOCKEND 212 1 1321
                                 3747   CFUNCTIONEND 212
                                 3748   
                                 3749   
  --------------------------     3750   	rseg $$MainOp_KX022$main
                                 3751   CFUNCTION 213
                                 3752   
00:0000                          3753   _MainOp_KX022	:
                                 3754   CBLOCK 213 1 1334
                                 3755   
                                 3756   ;;{
                                 3757   CLINEA 0000H 0001H 0536H 0001H 0001H
00:0000 CE-F8                    3758   	push	lr
                                 3759   CBLOCK 213 2 1334
                                 3760   CRET 0000H
                                 3761   
                                 3762   ;;	I2C_Read(KX022_I2C_ADDR, &KX022_XOUTL, 1, uniRawSensorOut._ucharArr, 6);
                                 3763   CLINEA 0000H 0001H 053BH 0002H 0049H
00:0002 06 00                    3764   	mov	r0,	#06h
00:0004 4E-F0                    3765   	push	r0
00:0006 00'00                    3766   	mov	r0,	#BYTE1 OFFSET _uniRawSensorOut
00:0008 00'01                    3767   	mov	r1,	#BYTE2 OFFSET _uniRawSensorOut
00:000A 5E-F0                    3768   	push	er0
00:000C 01 00                    3769   	mov	r0,	#01h
00:000E 4E-F0                    3770   	push	r0
00:0010 00'02                    3771   	mov	r2,	#BYTE1 OFFSET _KX022_XOUTL
00:0012 00'03                    3772   	mov	r3,	#BYTE2 OFFSET _KX022_XOUTL
00:0014 1E 00                    3773   	mov	r0,	#01eh
00:0016 01-F0'00-00'             3774   	bl	_I2C_Read
00:001A 06 E1                    3775   	add	sp,	#6 
                                 3776   
                                 3777   ;;	flSensorOut[0] = (float)uniRawSensorOut._intArr[0]/16384.0f;	// X
                                 3778   CLINEA 0000H 0001H 053EH 0002H 0042H
00:001C 12-90 00-00'             3779   	l	er0,	NEAR _uniRawSensorOut
00:0020 10-82                    3780   	mov	r2,	r1
00:0022 2F-83                    3781   	extbw	er2
00:0024 30-82                    3782   	mov	r2,	r3
00:0026 6E-F0                    3783   	push	xr0
00:0028 01-F0'00-00'             3784   	bl	__fildu8sw
00:002C 00 E0                    3785   	mov	er0,	#0 
00:002E 80 02                    3786   	mov	r2,	#080h
00:0030 46 03                    3787   	mov	r3,	#046h
00:0032 6E-F0                    3788   	push	xr0
00:0034 01-F0'00-00'             3789   	bl	__fdivu8sw
00:0038 04 E1                    3790   	add	sp,	#4 
00:003A 2E-F0                    3791   	pop	xr0
00:003C 13-90 00-00'             3792   	st	er0,	NEAR _flSensorOut
00:0040 13-92 00-00'             3793   	st	er2,	NEAR _flSensorOut+02h
                                 3794   
                                 3795   ;;	flSensorOut[1] = (float)uniRawSensorOut._intArr[1]/16384.0f;	// Y
                                 3796   CLINEA 0000H 0001H 053FH 0002H 0042H
00:0044 12-90 00-00'             3797   	l	er0,	NEAR _uniRawSensorOut+02h
00:0048 10-82                    3798   	mov	r2,	r1
00:004A 2F-83                    3799   	extbw	er2
00:004C 30-82                    3800   	mov	r2,	r3
00:004E 6E-F0                    3801   	push	xr0
00:0050 01-F0'00-00'             3802   	bl	__fildu8sw
00:0054 00 E0                    3803   	mov	er0,	#0 
00:0056 80 02                    3804   	mov	r2,	#080h
00:0058 46 03                    3805   	mov	r3,	#046h
00:005A 6E-F0                    3806   	push	xr0
00:005C 01-F0'00-00'             3807   	bl	__fdivu8sw
00:0060 04 E1                    3808   	add	sp,	#4 
00:0062 2E-F0                    3809   	pop	xr0
00:0064 13-90 00-00'             3810   	st	er0,	NEAR _flSensorOut+04h
00:0068 13-92 00-00'             3811   	st	er2,	NEAR _flSensorOut+06h
                                 3812   
                                 3813   ;;	flSensorOut[2] = (float)uniRawSensorOut._intArr[2]/16384.0f;	// Y
                                 3814   CLINEA 0000H 0001H 0540H 0002H 0042H
00:006C 12-90 00-00'             3815   	l	er0,	NEAR _uniRawSensorOut+04h
00:0070 10-82                    3816   	mov	r2,	r1
00:0072 2F-83                    3817   	extbw	er2
00:0074 30-82                    3818   	mov	r2,	r3
00:0076 6E-F0                    3819   	push	xr0
00:0078 01-F0'00-00'             3820   	bl	__fildu8sw
00:007C 00 E0                    3821   	mov	er0,	#0 
00:007E 80 02                    3822   	mov	r2,	#080h
00:0080 46 03                    3823   	mov	r3,	#046h
00:0082 6E-F0                    3824   	push	xr0
00:0084 01-F0'00-00'             3825   	bl	__fdivu8sw
00:0088 04 E1                    3826   	add	sp,	#4 
00:008A 2E-F0                    3827   	pop	xr0
00:008C 13-90 00-00'             3828   	st	er0,	NEAR _flSensorOut+08h
00:0090 13-92 00-00'             3829   	st	er2,	NEAR _flSensorOut+0ah
                                 3830   
                                 3831   ;;		uniRawSensorOut._intArr[0], flSensorOut[0], uniRawSensorOut._intArr[1], flSensorOut[1], uniRawSensorOut._intArr[2], flSensorOut[2]);
                                 3832   CLINEA 0000H 0001H 0543H 0003H 0086H
00:0094 6E-F0                    3833   	push	xr0
00:0096 FC E1                    3834   	add	sp,	#-4
00:0098 01-F0'00-00'             3835   	bl	__ftodu8sw
00:009C 12-90 00-00'             3836   	l	er0,	NEAR _uniRawSensorOut+04h
00:00A0 5E-F0                    3837   	push	er0
00:00A2 12-90 00-00'             3838   	l	er0,	NEAR _flSensorOut+04h
00:00A6 12-92 00-00'             3839   	l	er2,	NEAR _flSensorOut+06h
00:00AA 6E-F0                    3840   	push	xr0
00:00AC FC E1                    3841   	add	sp,	#-4
00:00AE 01-F0'00-00'             3842   	bl	__ftodu8sw
00:00B2 12-90 00-00'             3843   	l	er0,	NEAR _uniRawSensorOut+02h
00:00B6 5E-F0                    3844   	push	er0
00:00B8 12-90 00-00'             3845   	l	er0,	NEAR _flSensorOut
00:00BC 12-92 00-00'             3846   	l	er2,	NEAR _flSensorOut+02h
00:00C0 6E-F0                    3847   	push	xr0
00:00C2 FC E1                    3848   	add	sp,	#-4
00:00C4 01-F0'00-00'             3849   	bl	__ftodu8sw
00:00C8 12-90 00-00'             3850   	l	er0,	NEAR _uniRawSensorOut
00:00CC 5E-F0                    3851   	push	er0
00:00CE 00'00                    3852   	mov	r0,	#BYTE1 OFFSET $$S207
00:00D0 00'01                    3853   	mov	r1,	#BYTE2 OFFSET $$S207
00:00D2 5E-F0                    3854   	push	er0
00:00D4 01-F0'00-00'             3855   	bl	_printf_n
00:00D8 20 E1                    3856   	add	sp,	#32
                                 3857   
                                 3858   ;;	I2C_Read(KX022_I2C_ADDR, &KX022_TSCP, 1, uniRawSensorOut._ucharArr, 2);
                                 3859   CLINEA 0000H 0001H 0546H 0002H 0048H
00:00DA 02 00                    3860   	mov	r0,	#02h
00:00DC 4E-F0                    3861   	push	r0
00:00DE 00'00                    3862   	mov	r0,	#BYTE1 OFFSET _uniRawSensorOut
00:00E0 00'01                    3863   	mov	r1,	#BYTE2 OFFSET _uniRawSensorOut
00:00E2 5E-F0                    3864   	push	er0
00:00E4 01 00                    3865   	mov	r0,	#01h
00:00E6 4E-F0                    3866   	push	r0
00:00E8 00'02                    3867   	mov	r2,	#BYTE1 OFFSET _KX022_TSCP
00:00EA 00'03                    3868   	mov	r3,	#BYTE2 OFFSET _KX022_TSCP
00:00EC 1E 00                    3869   	mov	r0,	#01eh
00:00EE 01-F0'00-00'             3870   	bl	_I2C_Read
00:00F2 06 E1                    3871   	add	sp,	#6 
                                 3872   
                                 3873   ;;	switch(uniRawSensorOut._ucharArr[0])
                                 3874   CLINEA 0000H 0001H 0548H 0002H 0025H
00:00F4 10-90 00-00'             3875   	l	r0,	NEAR _uniRawSensorOut
                                 3876   CBLOCK 213 3 1353
00:00F8 01 70                    3877   	cmp	r0,	#01h
00:00FA 0E C9                    3878   	beq	_$L213
                                 3879   
                                 3880   ;;	switch(uniRawSensorOut._ucharArr[0])
                                 3881   CLINEA 0000H 0000H 0548H 0002H 0025H
00:00FC 02 70                    3882   	cmp	r0,	#02h
00:00FE 0E C9                    3883   	beq	_$L214
                                 3884   
                                 3885   ;;	switch(uniRawSensorOut._ucharArr[0])
                                 3886   CLINEA 0000H 0000H 0548H 0002H 0025H
00:0100 04 70                    3887   	cmp	r0,	#04h
00:0102 0E C9                    3888   	beq	_$L215
                                 3889   
                                 3890   ;;	switch(uniRawSensorOut._ucharArr[0])
                                 3891   CLINEA 0000H 0000H 0548H 0002H 0025H
00:0104 08 70                    3892   	cmp	r0,	#08h
00:0106 0E C9                    3893   	beq	_$L216
                                 3894   
                                 3895   ;;	switch(uniRawSensorOut._ucharArr[0])
                                 3896   CLINEA 0000H 0000H 0548H 0002H 0025H
00:0108 10 70                    3897   	cmp	r0,	#010h
00:010A 0E C9                    3898   	beq	_$L217
                                 3899   
                                 3900   ;;	switch(uniRawSensorOut._ucharArr[0])
                                 3901   CLINEA 0000H 0000H 0548H 0002H 0025H
00:010C 20 70                    3902   	cmp	r0,	#020h
00:010E 0E C9                    3903   	beq	_$L218
                                 3904   
                                 3905   ;;		default:	LEDOUT(0x00u); break;	// NONE
                                 3906   CLINEA 0000H 0000H 0550H 0003H 0028H
00:0110 00 00                    3907   	mov	r0,	#00h
                                 3908   CBLOCKEND 213 3 1361
                                 3909   
                                 3910   ;;	}
                                 3911   CLINEA 0000H 0000H 0551H 0002H 0002H
00:0112                          3912   _$L211 :
00:0112 11-90 60-F2              3913   	st	r0,	0f260h
                                 3914   CBLOCKEND 213 2 1362
                                 3915   
                                 3916   ;;}
                                 3917   CLINEA 0000H 0001H 0552H 0001H 0001H
00:0116 8E-F2                    3918   	pop	pc
                                 3919   
                                 3920   ;;		case 0x01u:	LEDOUT(0x1u<<4); break;	// FU: Face-Up State (Z+). Turn on LED4
                                 3921   CLINEA 0000H 0001H 054AH 0003H 004DH
00:0118                          3922   _$L213 :
00:0118 10 00                    3923   	mov	r0,	#010h
00:011A FB CE                    3924   	bal	_$L211
                                 3925   
                                 3926   ;;		case 0x02u:	LEDOUT(0x1u<<3); break;	// FD: Face-Down State (Z-). Turn on LED3
                                 3927   CLINEA 0000H 0001H 054BH 0003H 004FH
00:011C                          3928   _$L214 :
00:011C 08 00                    3929   	mov	r0,	#08h
00:011E F9 CE                    3930   	bal	_$L211
                                 3931   
                                 3932   ;;		case 0x04u:	LEDOUT(0x1u<<2); break;	// UP: Up State (Y+). Turn on LED2
                                 3933   CLINEA 0000H 0001H 054CH 0003H 0048H
00:0120                          3934   _$L215 :
00:0120 04 00                    3935   	mov	r0,	#04h
00:0122 F7 CE                    3936   	bal	_$L211
                                 3937   
                                 3938   ;;		case 0x08u:	LEDOUT(0x1u<<5); break;	// DO: Down State (Y-). Turn on LED5
                                 3939   CLINEA 0000H 0001H 054DH 0003H 004AH
00:0124                          3940   _$L216 :
00:0124 20 00                    3941   	mov	r0,	#020h
00:0126 F5 CE                    3942   	bal	_$L211
                                 3943   
                                 3944   ;;		case 0x10u:	LEDOUT(0x1u<<7); break;	// RI: Right State (X+). Turn on LED7
                                 3945   CLINEA 0000H 0001H 054EH 0003H 004BH
00:0128                          3946   _$L217 :
00:0128 80 00                    3947   	mov	r0,	#080h
00:012A F3 CE                    3948   	bal	_$L211
                                 3949   
                                 3950   ;;		case 0x20u:	LEDOUT(0x1u<<0); break;	// LE: Left State (X-). Turn on LED0
                                 3951   CLINEA 0000H 0001H 054FH 0003H 004AH
00:012C                          3952   _$L218 :
00:012C 01 00                    3953   	mov	r0,	#01h
00:012E F1 CE                    3954   	bal	_$L211
                                 3955   CBLOCKEND 213 1 1362
                                 3956   CFUNCTIONEND 213
                                 3957   
                                 3958   
  --------------------------     3959   	rseg $$MainOp_KMX61$main
                                 3960   CFUNCTION 214
                                 3961   
00:0000                          3962   _MainOp_KMX61	:
                                 3963   CBLOCK 214 1 1375
                                 3964   
                                 3965   ;;{ 
                                 3966   CLINEA 0000H 0001H 055FH 0001H 0002H
00:0000 CE-F8                    3967   	push	lr
                                 3968   CBLOCK 214 2 1375
                                 3969   CRET 0000H
                                 3970   
                                 3971   ;;	I2C_Read(KMX61_I2C_ADDR, &KMX61_ACCEL_XOUT_L, 1, uniRawSensorOut._ucharArr, 6);
                                 3972   CLINEA 0000H 0001H 0561H 0002H 0050H
00:0002 06 00                    3973   	mov	r0,	#06h
00:0004 4E-F0                    3974   	push	r0
00:0006 00'00                    3975   	mov	r0,	#BYTE1 OFFSET _uniRawSensorOut
00:0008 00'01                    3976   	mov	r1,	#BYTE2 OFFSET _uniRawSensorOut
00:000A 5E-F0                    3977   	push	er0
00:000C 01 00                    3978   	mov	r0,	#01h
00:000E 4E-F0                    3979   	push	r0
00:0010 00'02                    3980   	mov	r2,	#BYTE1 OFFSET _KMX61_ACCEL_XOUT_L
00:0012 00'03                    3981   	mov	r3,	#BYTE2 OFFSET _KMX61_ACCEL_XOUT_L
00:0014 0E 00                    3982   	mov	r0,	#0eh
00:0016 01-F0'00-00'             3983   	bl	_I2C_Read
00:001A 06 E1                    3984   	add	sp,	#6 
                                 3985   
                                 3986   ;;	uniRawSensorOut._intArr[0] = uniRawSensorOut._intArr[0]>>2;
                                 3987   CLINEA 0000H 0001H 0562H 0002H 003CH
00:001C 12-90 00-00'             3988   	l	er0,	NEAR _uniRawSensorOut
00:0020 2D-90                    3989   	srlc	r0,	#02h
00:0022 2E-91                    3990   	sra	r1,	#02h
00:0024 13-90 00-00'             3991   	st	er0,	NEAR _uniRawSensorOut
                                 3992   
                                 3993   ;;	uniRawSensorOut._intArr[1] = uniRawSensorOut._intArr[1]>>2;
                                 3994   CLINEA 0000H 0001H 0563H 0002H 003CH
00:0028 12-90 00-00'             3995   	l	er0,	NEAR _uniRawSensorOut+02h
00:002C 2D-90                    3996   	srlc	r0,	#02h
00:002E 2E-91                    3997   	sra	r1,	#02h
00:0030 13-90 00-00'             3998   	st	er0,	NEAR _uniRawSensorOut+02h
                                 3999   
                                 4000   ;;	uniRawSensorOut._intArr[2] = uniRawSensorOut._intArr[2]>>2;
                                 4001   CLINEA 0000H 0001H 0564H 0002H 003CH
00:0034 12-90 00-00'             4002   	l	er0,	NEAR _uniRawSensorOut+04h
00:0038 2D-90                    4003   	srlc	r0,	#02h
00:003A 2E-91                    4004   	sra	r1,	#02h
00:003C 13-90 00-00'             4005   	st	er0,	NEAR _uniRawSensorOut+04h
                                 4006   
                                 4007   ;;	flSensorOut[0] = (float)uniRawSensorOut._intArr[0]/2048.0f;	// X
                                 4008   CLINEA 0000H 0001H 0566H 0002H 0041H
00:0040 12-90 00-00'             4009   	l	er0,	NEAR _uniRawSensorOut
00:0044 10-82                    4010   	mov	r2,	r1
00:0046 2F-83                    4011   	extbw	er2
00:0048 30-82                    4012   	mov	r2,	r3
00:004A 6E-F0                    4013   	push	xr0
00:004C 01-F0'00-00'             4014   	bl	__fildu8sw
00:0050 00 E0                    4015   	mov	er0,	#0 
00:0052 00 02                    4016   	mov	r2,	#00h
00:0054 45 03                    4017   	mov	r3,	#045h
00:0056 6E-F0                    4018   	push	xr0
00:0058 01-F0'00-00'             4019   	bl	__fdivu8sw
00:005C 04 E1                    4020   	add	sp,	#4 
00:005E 2E-F0                    4021   	pop	xr0
00:0060 13-90 00-00'             4022   	st	er0,	NEAR _flSensorOut
00:0064 13-92 00-00'             4023   	st	er2,	NEAR _flSensorOut+02h
                                 4024   
                                 4025   ;;	flSensorOut[1] = (float)uniRawSensorOut._intArr[1]/2048.0f;	// Y
                                 4026   CLINEA 0000H 0001H 0567H 0002H 0041H
00:0068 12-90 00-00'             4027   	l	er0,	NEAR _uniRawSensorOut+02h
00:006C 10-82                    4028   	mov	r2,	r1
00:006E 2F-83                    4029   	extbw	er2
00:0070 30-82                    4030   	mov	r2,	r3
00:0072 6E-F0                    4031   	push	xr0
00:0074 01-F0'00-00'             4032   	bl	__fildu8sw
00:0078 00 E0                    4033   	mov	er0,	#0 
00:007A 00 02                    4034   	mov	r2,	#00h
00:007C 45 03                    4035   	mov	r3,	#045h
00:007E 6E-F0                    4036   	push	xr0
00:0080 01-F0'00-00'             4037   	bl	__fdivu8sw
00:0084 04 E1                    4038   	add	sp,	#4 
00:0086 2E-F0                    4039   	pop	xr0
00:0088 13-90 00-00'             4040   	st	er0,	NEAR _flSensorOut+04h
00:008C 13-92 00-00'             4041   	st	er2,	NEAR _flSensorOut+06h
                                 4042   
                                 4043   ;;	flSensorOut[2] = (float)uniRawSensorOut._intArr[2]/2048.0f;	// Z
                                 4044   CLINEA 0000H 0001H 0568H 0002H 0041H
00:0090 12-90 00-00'             4045   	l	er0,	NEAR _uniRawSensorOut+04h
00:0094 10-82                    4046   	mov	r2,	r1
00:0096 2F-83                    4047   	extbw	er2
00:0098 30-82                    4048   	mov	r2,	r3
00:009A 6E-F0                    4049   	push	xr0
00:009C 01-F0'00-00'             4050   	bl	__fildu8sw
00:00A0 00 E0                    4051   	mov	er0,	#0 
00:00A2 00 02                    4052   	mov	r2,	#00h
00:00A4 45 03                    4053   	mov	r3,	#045h
00:00A6 6E-F0                    4054   	push	xr0
00:00A8 01-F0'00-00'             4055   	bl	__fdivu8sw
00:00AC 04 E1                    4056   	add	sp,	#4 
00:00AE 2E-F0                    4057   	pop	xr0
00:00B0 13-90 00-00'             4058   	st	er0,	NEAR _flSensorOut+08h
00:00B4 13-92 00-00'             4059   	st	er2,	NEAR _flSensorOut+0ah
                                 4060   
                                 4061   ;;		uniRawSensorOut._intArr[0], flSensorOut[0], uniRawSensorOut._intArr[1], flSensorOut[1], uniRawSensorOut._intArr[2], flSensorOut[2]);
                                 4062   CLINEA 0000H 0001H 056AH 0003H 0086H
00:00B8 6E-F0                    4063   	push	xr0
00:00BA FC E1                    4064   	add	sp,	#-4
00:00BC 01-F0'00-00'             4065   	bl	__ftodu8sw
00:00C0 12-90 00-00'             4066   	l	er0,	NEAR _uniRawSensorOut+04h
00:00C4 5E-F0                    4067   	push	er0
00:00C6 12-90 00-00'             4068   	l	er0,	NEAR _flSensorOut+04h
00:00CA 12-92 00-00'             4069   	l	er2,	NEAR _flSensorOut+06h
00:00CE 6E-F0                    4070   	push	xr0
00:00D0 FC E1                    4071   	add	sp,	#-4
00:00D2 01-F0'00-00'             4072   	bl	__ftodu8sw
00:00D6 12-90 00-00'             4073   	l	er0,	NEAR _uniRawSensorOut+02h
00:00DA 5E-F0                    4074   	push	er0
00:00DC 12-90 00-00'             4075   	l	er0,	NEAR _flSensorOut
00:00E0 12-92 00-00'             4076   	l	er2,	NEAR _flSensorOut+02h
00:00E4 6E-F0                    4077   	push	xr0
00:00E6 FC E1                    4078   	add	sp,	#-4
00:00E8 01-F0'00-00'             4079   	bl	__ftodu8sw
00:00EC 12-90 00-00'             4080   	l	er0,	NEAR _uniRawSensorOut
00:00F0 5E-F0                    4081   	push	er0
00:00F2 00'00                    4082   	mov	r0,	#BYTE1 OFFSET $$S220
00:00F4 00'01                    4083   	mov	r1,	#BYTE2 OFFSET $$S220
00:00F6 5E-F0                    4084   	push	er0
00:00F8 01-F0'00-00'             4085   	bl	_printf_n
00:00FC 20 E1                    4086   	add	sp,	#32
                                 4087   
                                 4088   ;;	if(-0.5f<flSensorOut[0] && flSensorOut[0]<0.5f && 0.5f<flSensorOut[1])
                                 4089   CLINEA 0000H 0001H 056CH 0002H 0047H
00:00FE 00 E0                    4090   	mov	er0,	#0 
00:0100 00 02                    4091   	mov	r2,	#00h
00:0102 BF 03                    4092   	mov	r3,	#0bfh
00:0104 6E-F0                    4093   	push	xr0
00:0106 12-90 00-00'             4094   	l	er0,	NEAR _flSensorOut
00:010A 12-92 00-00'             4095   	l	er2,	NEAR _flSensorOut+02h
00:010E 6E-F0                    4096   	push	xr0
00:0110 01-F0'00-00'             4097   	bl	__fcmpu8sw
00:0114 08 E1                    4098   	add	sp,	#8 
00:0116 0B-A0                    4099   	mov	psw,	r0
00:0118 1F C0                    4100   	bge	_$L221
00:011A 12-90 00-00'             4101   	l	er0,	NEAR _flSensorOut
00:011E 6E-F0                    4102   	push	xr0
00:0120 00 E0                    4103   	mov	er0,	#0 
00:0122 00 02                    4104   	mov	r2,	#00h
00:0124 3F 03                    4105   	mov	r3,	#03fh
00:0126 6E-F0                    4106   	push	xr0
00:0128 01-F0'00-00'             4107   	bl	__fcmpu8sw
00:012C 08 E1                    4108   	add	sp,	#8 
00:012E 0B-A0                    4109   	mov	psw,	r0
00:0130 13 C0                    4110   	bge	_$L221
00:0132 00 E0                    4111   	mov	er0,	#0 
00:0134 00 02                    4112   	mov	r2,	#00h
00:0136 3F 03                    4113   	mov	r3,	#03fh
00:0138 6E-F0                    4114   	push	xr0
00:013A 12-90 00-00'             4115   	l	er0,	NEAR _flSensorOut+04h
00:013E 12-92 00-00'             4116   	l	er2,	NEAR _flSensorOut+06h
00:0142 6E-F0                    4117   	push	xr0
00:0144 01-F0'00-00'             4118   	bl	__fcmpu8sw
00:0148 08 E1                    4119   	add	sp,	#8 
00:014A 0B-A0                    4120   	mov	psw,	r0
00:014C 05 C0                    4121   	bge	_$L221
                                 4122   
                                 4123   ;;		LEDOUT(0x1u<<5);	// -30<angle(X,1g)<30 & angle(Y,1g)>30. Turn on LED5
                                 4124   CLINEA 0000H 0001H 056DH 0003H 0047H
00:014E 20 00                    4125   	mov	r0,	#020h
00:0150 11-90 60-F2              4126   	st	r0,	0f260h
                                 4127   
                                 4128   ;;	else if(0.5f<flSensorOut[0] && -0.5f<flSensorOut[1] && flSensorOut[1]<0.5f)
                                 4129   CLINEA 0000H 0001H 056EH 0002H 004CH
00:0154 00-F0'00-00'             4130   	b	_$L268
00:0158                          4131   _$L221 :
00:0158 00 E0                    4132   	mov	er0,	#0 
00:015A 00 02                    4133   	mov	r2,	#00h
00:015C 3F 03                    4134   	mov	r3,	#03fh
00:015E 6E-F0                    4135   	push	xr0
00:0160 12-90 00-00'             4136   	l	er0,	NEAR _flSensorOut
00:0164 12-92 00-00'             4137   	l	er2,	NEAR _flSensorOut+02h
00:0168 6E-F0                    4138   	push	xr0
00:016A 01-F0'00-00'             4139   	bl	__fcmpu8sw
00:016E 08 E1                    4140   	add	sp,	#8 
00:0170 0B-A0                    4141   	mov	psw,	r0
00:0172 1F C0                    4142   	bge	_$L232
00:0174 00 E0                    4143   	mov	er0,	#0 
00:0176 00 02                    4144   	mov	r2,	#00h
00:0178 BF 03                    4145   	mov	r3,	#0bfh
00:017A 6E-F0                    4146   	push	xr0
00:017C 12-90 00-00'             4147   	l	er0,	NEAR _flSensorOut+04h
00:0180 12-92 00-00'             4148   	l	er2,	NEAR _flSensorOut+06h
00:0184 6E-F0                    4149   	push	xr0
00:0186 01-F0'00-00'             4150   	bl	__fcmpu8sw
00:018A 08 E1                    4151   	add	sp,	#8 
00:018C 0B-A0                    4152   	mov	psw,	r0
00:018E 11 C0                    4153   	bge	_$L232
00:0190 12-90 00-00'             4154   	l	er0,	NEAR _flSensorOut+04h
00:0194 6E-F0                    4155   	push	xr0
00:0196 00 E0                    4156   	mov	er0,	#0 
00:0198 00 02                    4157   	mov	r2,	#00h
00:019A 3F 03                    4158   	mov	r3,	#03fh
00:019C 6E-F0                    4159   	push	xr0
00:019E 01-F0'00-00'             4160   	bl	__fcmpu8sw
00:01A2 08 E1                    4161   	add	sp,	#8 
00:01A4 0B-A0                    4162   	mov	psw,	r0
00:01A6 05 C0                    4163   	bge	_$L232
                                 4164   
                                 4165   ;;		LEDOUT(0x1u<<0);	// 30<angle(X,1g) & -30<angle(Y,1g)<30. Turn on LED0
                                 4166   CLINEA 0000H 0001H 056FH 0003H 0047H
00:01A8 01 00                    4167   	mov	r0,	#01h
00:01AA 11-90 60-F2              4168   	st	r0,	0f260h
                                 4169   
                                 4170   ;;	else if(-0.5f<flSensorOut[0] && flSensorOut[0]<0.5f && flSensorOut[1]<-0.5f)
                                 4171   CLINEA 0000H 0001H 0570H 0002H 004DH
00:01AE 00-F0'00-00'             4172   	b	_$L268
00:01B2                          4173   _$L232 :
00:01B2 00 E0                    4174   	mov	er0,	#0 
00:01B4 00 02                    4175   	mov	r2,	#00h
00:01B6 BF 03                    4176   	mov	r3,	#0bfh
00:01B8 6E-F0                    4177   	push	xr0
00:01BA 12-90 00-00'             4178   	l	er0,	NEAR _flSensorOut
00:01BE 12-92 00-00'             4179   	l	er2,	NEAR _flSensorOut+02h
00:01C2 6E-F0                    4180   	push	xr0
00:01C4 01-F0'00-00'             4181   	bl	__fcmpu8sw
00:01C8 08 E1                    4182   	add	sp,	#8 
00:01CA 0B-A0                    4183   	mov	psw,	r0
00:01CC 1F C0                    4184   	bge	_$L243
00:01CE 12-90 00-00'             4185   	l	er0,	NEAR _flSensorOut
00:01D2 6E-F0                    4186   	push	xr0
00:01D4 00 E0                    4187   	mov	er0,	#0 
00:01D6 00 02                    4188   	mov	r2,	#00h
00:01D8 3F 03                    4189   	mov	r3,	#03fh
00:01DA 6E-F0                    4190   	push	xr0
00:01DC 01-F0'00-00'             4191   	bl	__fcmpu8sw
00:01E0 08 E1                    4192   	add	sp,	#8 
00:01E2 0B-A0                    4193   	mov	psw,	r0
00:01E4 13 C0                    4194   	bge	_$L243
00:01E6 12-90 00-00'             4195   	l	er0,	NEAR _flSensorOut+04h
00:01EA 12-92 00-00'             4196   	l	er2,	NEAR _flSensorOut+06h
00:01EE 6E-F0                    4197   	push	xr0
00:01F0 00 E0                    4198   	mov	er0,	#0 
00:01F2 00 02                    4199   	mov	r2,	#00h
00:01F4 BF 03                    4200   	mov	r3,	#0bfh
00:01F6 6E-F0                    4201   	push	xr0
00:01F8 01-F0'00-00'             4202   	bl	__fcmpu8sw
00:01FC 08 E1                    4203   	add	sp,	#8 
00:01FE 0B-A0                    4204   	mov	psw,	r0
00:0200 05 C0                    4205   	bge	_$L243
                                 4206   
                                 4207   ;;		LEDOUT(0x1u<<2);	// -30<angle(X,1g)<30 & angle(Y,1g)<-30. Turn on LED2
                                 4208   CLINEA 0000H 0001H 0571H 0003H 0048H
00:0202 04 00                    4209   	mov	r0,	#04h
00:0204 11-90 60-F2              4210   	st	r0,	0f260h
                                 4211   
                                 4212   ;;	else if(flSensorOut[0]<-0.5f && -0.5f<flSensorOut[1] && flSensorOut[1]<0.5f)
                                 4213   CLINEA 0000H 0001H 0572H 0002H 004DH
00:0208 00-F0'00-00'             4214   	b	_$L268
00:020C                          4215   _$L243 :
00:020C 12-90 00-00'             4216   	l	er0,	NEAR _flSensorOut
00:0210 12-92 00-00'             4217   	l	er2,	NEAR _flSensorOut+02h
00:0214 6E-F0                    4218   	push	xr0
00:0216 00 E0                    4219   	mov	er0,	#0 
00:0218 00 02                    4220   	mov	r2,	#00h
00:021A BF 03                    4221   	mov	r3,	#0bfh
00:021C 6E-F0                    4222   	push	xr0
00:021E 01-F0'00-00'             4223   	bl	__fcmpu8sw
00:0222 08 E1                    4224   	add	sp,	#8 
00:0224 0B-A0                    4225   	mov	psw,	r0
00:0226 1E C0                    4226   	bge	_$L254
00:0228 00 E0                    4227   	mov	er0,	#0 
00:022A 00 02                    4228   	mov	r2,	#00h
00:022C BF 03                    4229   	mov	r3,	#0bfh
00:022E 6E-F0                    4230   	push	xr0
00:0230 12-90 00-00'             4231   	l	er0,	NEAR _flSensorOut+04h
00:0234 12-92 00-00'             4232   	l	er2,	NEAR _flSensorOut+06h
00:0238 6E-F0                    4233   	push	xr0
00:023A 01-F0'00-00'             4234   	bl	__fcmpu8sw
00:023E 08 E1                    4235   	add	sp,	#8 
00:0240 0B-A0                    4236   	mov	psw,	r0
00:0242 10 C0                    4237   	bge	_$L254
00:0244 12-90 00-00'             4238   	l	er0,	NEAR _flSensorOut+04h
00:0248 6E-F0                    4239   	push	xr0
00:024A 00 E0                    4240   	mov	er0,	#0 
00:024C 00 02                    4241   	mov	r2,	#00h
00:024E 3F 03                    4242   	mov	r3,	#03fh
00:0250 6E-F0                    4243   	push	xr0
00:0252 01-F0'00-00'             4244   	bl	__fcmpu8sw
00:0256 08 E1                    4245   	add	sp,	#8 
00:0258 0B-A0                    4246   	mov	psw,	r0
00:025A 04 C0                    4247   	bge	_$L254
                                 4248   
                                 4249   ;;		LEDOUT(0x1u<<7);	// angle(X,1g)<-30 & -30<angle(Y,1g)<30. Turn on LED7
                                 4250   CLINEA 0000H 0001H 0573H 0003H 0048H
00:025C 80 00                    4251   	mov	r0,	#080h
00:025E 11-90 60-F2              4252   	st	r0,	0f260h
                                 4253   
                                 4254   ;;	else if(flSensorOut[2]>0.5f)
                                 4255   CLINEA 0000H 0001H 0574H 0002H 001DH
00:0262 23 CE                    4256   	bal	_$L268
00:0264                          4257   _$L254 :
00:0264 12-90 00-00'             4258   	l	er0,	NEAR _flSensorOut+08h
00:0268 12-92 00-00'             4259   	l	er2,	NEAR _flSensorOut+0ah
00:026C 6E-F0                    4260   	push	xr0
00:026E 00 E0                    4261   	mov	er0,	#0 
00:0270 00 02                    4262   	mov	r2,	#00h
00:0272 3F 03                    4263   	mov	r3,	#03fh
00:0274 6E-F0                    4264   	push	xr0
00:0276 01-F0'00-00'             4265   	bl	__fcmpu8sw
00:027A 08 E1                    4266   	add	sp,	#8 
00:027C 0B-A0                    4267   	mov	psw,	r0
00:027E 04 C3                    4268   	ble	_$L265
                                 4269   
                                 4270   ;;		LEDOUT(0x1u<<4);	// angle(Z,1g)>30. Turn on LED4
                                 4271   CLINEA 0000H 0001H 0575H 0003H 0032H
00:0280 10 00                    4272   	mov	r0,	#010h
00:0282 11-90 60-F2              4273   	st	r0,	0f260h
                                 4274   
                                 4275   ;;	else if(flSensorOut[2]<-0.5f)
                                 4276   CLINEA 0000H 0001H 0576H 0002H 001EH
00:0286 11 CE                    4277   	bal	_$L268
00:0288                          4278   _$L265 :
00:0288 12-90 00-00'             4279   	l	er0,	NEAR _flSensorOut+08h
00:028C 12-92 00-00'             4280   	l	er2,	NEAR _flSensorOut+0ah
00:0290 6E-F0                    4281   	push	xr0
00:0292 00 E0                    4282   	mov	er0,	#0 
00:0294 00 02                    4283   	mov	r2,	#00h
00:0296 BF 03                    4284   	mov	r3,	#0bfh
00:0298 6E-F0                    4285   	push	xr0
00:029A 01-F0'00-00'             4286   	bl	__fcmpu8sw
00:029E 08 E1                    4287   	add	sp,	#8 
00:02A0 0B-A0                    4288   	mov	psw,	r0
00:02A2 03 C0                    4289   	bge	_$L268
                                 4290   
                                 4291   ;;		LEDOUT(0x1u<<3);	// angle(Z,1g)<-30. Turn on LED3
                                 4292   CLINEA 0000H 0001H 0577H 0003H 0033H
00:02A4 08 00                    4293   	mov	r0,	#08h
00:02A6 11-90 60-F2              4294   	st	r0,	0f260h
00:02AA                          4295   _$L268 :
                                 4296   
                                 4297   ;;	I2C_Read(KMX61_I2C_ADDR, &KMX62_MAG_XOUT_L, 1, uniRawSensorOut._ucharArr, 6);
                                 4298   CLINEA 0000H 0001H 057AH 0002H 004EH
00:02AA 06 00                    4299   	mov	r0,	#06h
00:02AC 4E-F0                    4300   	push	r0
00:02AE 00'00                    4301   	mov	r0,	#BYTE1 OFFSET _uniRawSensorOut
00:02B0 00'01                    4302   	mov	r1,	#BYTE2 OFFSET _uniRawSensorOut
00:02B2 5E-F0                    4303   	push	er0
00:02B4 01 00                    4304   	mov	r0,	#01h
00:02B6 4E-F0                    4305   	push	r0
00:02B8 00'02                    4306   	mov	r2,	#BYTE1 OFFSET _KMX62_MAG_XOUT_L
00:02BA 00'03                    4307   	mov	r3,	#BYTE2 OFFSET _KMX62_MAG_XOUT_L
00:02BC 0E 00                    4308   	mov	r0,	#0eh
00:02BE 01-F0'00-00'             4309   	bl	_I2C_Read
00:02C2 06 E1                    4310   	add	sp,	#6 
                                 4311   
                                 4312   ;;	uniRawSensorOut._intArr[0] = uniRawSensorOut._intArr[0]>>2;
                                 4313   CLINEA 0000H 0001H 057BH 0002H 003CH
00:02C4 12-90 00-00'             4314   	l	er0,	NEAR _uniRawSensorOut
00:02C8 2D-90                    4315   	srlc	r0,	#02h
00:02CA 2E-91                    4316   	sra	r1,	#02h
00:02CC 13-90 00-00'             4317   	st	er0,	NEAR _uniRawSensorOut
                                 4318   
                                 4319   ;;	uniRawSensorOut._intArr[1] = uniRawSensorOut._intArr[1]>>2;
                                 4320   CLINEA 0000H 0001H 057CH 0002H 003CH
00:02D0 12-90 00-00'             4321   	l	er0,	NEAR _uniRawSensorOut+02h
00:02D4 2D-90                    4322   	srlc	r0,	#02h
00:02D6 2E-91                    4323   	sra	r1,	#02h
00:02D8 13-90 00-00'             4324   	st	er0,	NEAR _uniRawSensorOut+02h
                                 4325   
                                 4326   ;;	uniRawSensorOut._intArr[2] = uniRawSensorOut._intArr[2]>>2;
                                 4327   CLINEA 0000H 0001H 057DH 0002H 003CH
00:02DC 12-90 00-00'             4328   	l	er0,	NEAR _uniRawSensorOut+04h
00:02E0 2D-90                    4329   	srlc	r0,	#02h
00:02E2 2E-91                    4330   	sra	r1,	#02h
00:02E4 13-90 00-00'             4331   	st	er0,	NEAR _uniRawSensorOut+04h
                                 4332   
                                 4333   ;;	flSensorOut[0] = (float)uniRawSensorOut._intArr[0]*0.146f;	// X
                                 4334   CLINEA 0000H 0001H 057FH 0002H 0040H
00:02E8 12-90 00-00'             4335   	l	er0,	NEAR _uniRawSensorOut
00:02EC 10-82                    4336   	mov	r2,	r1
00:02EE 2F-83                    4337   	extbw	er2
00:02F0 30-82                    4338   	mov	r2,	r3
00:02F2 6E-F0                    4339   	push	xr0
00:02F4 01-F0'00-00'             4340   	bl	__fildu8sw
00:02F8 06 00                    4341   	mov	r0,	#06h
00:02FA 81 01                    4342   	mov	r1,	#081h
00:02FC 15 02                    4343   	mov	r2,	#015h
00:02FE 3E 03                    4344   	mov	r3,	#03eh
00:0300 6E-F0                    4345   	push	xr0
00:0302 01-F0'00-00'             4346   	bl	__fmulu8sw
00:0306 04 E1                    4347   	add	sp,	#4 
00:0308 2E-F0                    4348   	pop	xr0
00:030A 13-90 00-00'             4349   	st	er0,	NEAR _flSensorOut
00:030E 13-92 00-00'             4350   	st	er2,	NEAR _flSensorOut+02h
                                 4351   
                                 4352   ;;	flSensorOut[1] = (float)uniRawSensorOut._intArr[1]*0.146f;	// Y
                                 4353   CLINEA 0000H 0001H 0580H 0002H 0040H
00:0312 12-90 00-00'             4354   	l	er0,	NEAR _uniRawSensorOut+02h
00:0316 10-82                    4355   	mov	r2,	r1
00:0318 2F-83                    4356   	extbw	er2
00:031A 30-82                    4357   	mov	r2,	r3
00:031C 6E-F0                    4358   	push	xr0
00:031E 01-F0'00-00'             4359   	bl	__fildu8sw
00:0322 06 00                    4360   	mov	r0,	#06h
00:0324 81 01                    4361   	mov	r1,	#081h
00:0326 15 02                    4362   	mov	r2,	#015h
00:0328 3E 03                    4363   	mov	r3,	#03eh
00:032A 6E-F0                    4364   	push	xr0
00:032C 01-F0'00-00'             4365   	bl	__fmulu8sw
00:0330 04 E1                    4366   	add	sp,	#4 
00:0332 2E-F0                    4367   	pop	xr0
00:0334 13-90 00-00'             4368   	st	er0,	NEAR _flSensorOut+04h
00:0338 13-92 00-00'             4369   	st	er2,	NEAR _flSensorOut+06h
                                 4370   
                                 4371   ;;	flSensorOut[2] = (float)uniRawSensorOut._intArr[2]*0.146f;	// Y
                                 4372   CLINEA 0000H 0001H 0581H 0002H 0040H
00:033C 12-90 00-00'             4373   	l	er0,	NEAR _uniRawSensorOut+04h
00:0340 10-82                    4374   	mov	r2,	r1
00:0342 2F-83                    4375   	extbw	er2
00:0344 30-82                    4376   	mov	r2,	r3
00:0346 6E-F0                    4377   	push	xr0
00:0348 01-F0'00-00'             4378   	bl	__fildu8sw
00:034C 06 00                    4379   	mov	r0,	#06h
00:034E 81 01                    4380   	mov	r1,	#081h
00:0350 15 02                    4381   	mov	r2,	#015h
00:0352 3E 03                    4382   	mov	r3,	#03eh
00:0354 6E-F0                    4383   	push	xr0
00:0356 01-F0'00-00'             4384   	bl	__fmulu8sw
00:035A 04 E1                    4385   	add	sp,	#4 
00:035C 2E-F0                    4386   	pop	xr0
00:035E 13-90 00-00'             4387   	st	er0,	NEAR _flSensorOut+08h
00:0362 13-92 00-00'             4388   	st	er2,	NEAR _flSensorOut+0ah
                                 4389   
                                 4390   ;;		uniRawSensorOut._intArr[0], flSensorOut[0], uniRawSensorOut._intArr[1], flSensorOut[1], uniRawSensorOut._intArr[2], flSensorOut[2]);
                                 4391   CLINEA 0000H 0001H 0583H 0003H 0086H
00:0366 6E-F0                    4392   	push	xr0
00:0368 FC E1                    4393   	add	sp,	#-4
00:036A 01-F0'00-00'             4394   	bl	__ftodu8sw
00:036E 12-90 00-00'             4395   	l	er0,	NEAR _uniRawSensorOut+04h
00:0372 5E-F0                    4396   	push	er0
00:0374 12-90 00-00'             4397   	l	er0,	NEAR _flSensorOut+04h
00:0378 12-92 00-00'             4398   	l	er2,	NEAR _flSensorOut+06h
00:037C 6E-F0                    4399   	push	xr0
00:037E FC E1                    4400   	add	sp,	#-4
00:0380 01-F0'00-00'             4401   	bl	__ftodu8sw
00:0384 12-90 00-00'             4402   	l	er0,	NEAR _uniRawSensorOut+02h
00:0388 5E-F0                    4403   	push	er0
00:038A 12-90 00-00'             4404   	l	er0,	NEAR _flSensorOut
00:038E 12-92 00-00'             4405   	l	er2,	NEAR _flSensorOut+02h
00:0392 6E-F0                    4406   	push	xr0
00:0394 FC E1                    4407   	add	sp,	#-4
00:0396 01-F0'00-00'             4408   	bl	__ftodu8sw
00:039A 12-90 00-00'             4409   	l	er0,	NEAR _uniRawSensorOut
00:039E 5E-F0                    4410   	push	er0
00:03A0 00'00                    4411   	mov	r0,	#BYTE1 OFFSET $$S270
00:03A2 00'01                    4412   	mov	r1,	#BYTE2 OFFSET $$S270
00:03A4 5E-F0                    4413   	push	er0
00:03A6 01-F0'00-00'             4414   	bl	_printf_n
00:03AA 20 E1                    4415   	add	sp,	#32
                                 4416   CBLOCKEND 214 2 1412
                                 4417   
                                 4418   ;;}
                                 4419   CLINEA 0000H 0001H 0584H 0001H 0001H
00:03AC 8E-F2                    4420   	pop	pc
                                 4421   CBLOCKEND 214 1 1412
                                 4422   CFUNCTIONEND 214
                                 4423   
                                 4424   
  --------------------------     4425   	rseg $$MainOp_Temperature_Sensor_20$main
                                 4426   CFUNCTION 215
                                 4427   
00:0000                          4428   _MainOp_Temperature_Sensor_20	:
                                 4429   CBLOCK 215 1 1425
                                 4430   
                                 4431   ;;{
                                 4432   CLINEA 0000H 0001H 0591H 0001H 0001H
00:0000 CE-F8                    4433   	push	lr
                                 4434   CBLOCK 215 2 1425
                                 4435   CRET 0000H
                                 4436   
                                 4437   ;;	uniRawSensorOut._uint = ADC_Read(0);
                                 4438   CLINEA 0000H 0000H 0592H 0002H 0025H
00:0002 00 00                    4439   	mov	r0,	#00h
00:0004 01-F0'00-00'             4440   	bl	_ADC_Read
00:0008 13-90 00-00'             4441   	st	er0,	NEAR _uniRawSensorOut
                                 4442   
                                 4443   ;;	flSensorOut[0] = uniRawSensorOut._uint*3.3f/1023;
                                 4444   CLINEA 0000H 0001H 0594H 0002H 0032H
00:000C 00 E2                    4445   	mov	er2,	#0 
00:000E 6E-F0                    4446   	push	xr0
00:0010 01-F0'00-00'             4447   	bl	__fuldu8sw
00:0014 33 00                    4448   	mov	r0,	#033h
00:0016 33 01                    4449   	mov	r1,	#033h
00:0018 53 02                    4450   	mov	r2,	#053h
00:001A 40 03                    4451   	mov	r3,	#040h
00:001C 6E-F0                    4452   	push	xr0
00:001E 01-F0'00-00'             4453   	bl	__fmulu8sw
00:0022 04 E1                    4454   	add	sp,	#4 
00:0024 00 00                    4455   	mov	r0,	#00h
00:0026 C0 01                    4456   	mov	r1,	#0c0h
00:0028 7F 02                    4457   	mov	r2,	#07fh
00:002A 44 03                    4458   	mov	r3,	#044h
00:002C 6E-F0                    4459   	push	xr0
00:002E 01-F0'00-00'             4460   	bl	__fdivu8sw
00:0032 04 E1                    4461   	add	sp,	#4 
00:0034 2E-F0                    4462   	pop	xr0
00:0036 13-90 00-00'             4463   	st	er0,	NEAR _flSensorOut
00:003A 13-92 00-00'             4464   	st	er2,	NEAR _flSensorOut+02h
                                 4465   
                                 4466   ;;	flSensorOut[1] = Voltage2Temperature(flSensorOut[0], 1.3f, 30.0f, -0.0082f);
                                 4467   CLINEA 0000H 0001H 0596H 0002H 004DH
00:003E 6E-F0                    4468   	push	xr0
00:0040 66 00                    4469   	mov	r0,	#066h
00:0042 66 01                    4470   	mov	r1,	#066h
00:0044 A6 02                    4471   	mov	r2,	#0a6h
00:0046 BF 03                    4472   	mov	r3,	#0bfh
00:0048 6E-F0                    4473   	push	xr0
00:004A 01-F0'00-00'             4474   	bl	__faddu8sw
00:004E 04 E1                    4475   	add	sp,	#4 
00:0050 4B 00                    4476   	mov	r0,	#04bh
00:0052 59 01                    4477   	mov	r1,	#059h
00:0054 06 02                    4478   	mov	r2,	#06h
00:0056 BC 03                    4479   	mov	r3,	#0bch
00:0058 6E-F0                    4480   	push	xr0
00:005A 01-F0'00-00'             4481   	bl	__fdivu8sw
00:005E 04 E1                    4482   	add	sp,	#4 
00:0060 00 E0                    4483   	mov	er0,	#0 
00:0062 F0 02                    4484   	mov	r2,	#0f0h
00:0064 41 03                    4485   	mov	r3,	#041h
00:0066 6E-F0                    4486   	push	xr0
00:0068 01-F0'00-00'             4487   	bl	__faddu8sw
00:006C 04 E1                    4488   	add	sp,	#4 
00:006E 2E-F0                    4489   	pop	xr0
00:0070 13-90 00-00'             4490   	st	er0,	NEAR _flSensorOut+04h
00:0074 13-92 00-00'             4491   	st	er2,	NEAR _flSensorOut+06h
                                 4492   
                                 4493   ;;	LEDOUT(((unsigned char)(uniRawSensorOut._uint>>2)));
                                 4494   CLINEA 0000H 0001H 0598H 0002H 0035H
00:0078 12-90 00-00'             4495   	l	er0,	NEAR _uniRawSensorOut
00:007C 2D-90                    4496   	srlc	r0,	#02h
00:007E 11-90 60-F2              4497   	st	r0,	0f260h
                                 4498   
                                 4499   ;;	printf( ESC_NEWLINE "BD1020HFV> Temperature = %6.6f[C]. Vsenout = %6.6f[V]" ESC_NEWLINE, flSensorOut[1], flSensorOut[0]);
                                 4500   CLINEA 0000H 0001H 0599H 0002H 007CH
00:0082 12-90 00-00'             4501   	l	er0,	NEAR _flSensorOut
00:0086 12-92 00-00'             4502   	l	er2,	NEAR _flSensorOut+02h
00:008A 6E-F0                    4503   	push	xr0
00:008C FC E1                    4504   	add	sp,	#-4
00:008E 01-F0'00-00'             4505   	bl	__ftodu8sw
00:0092 12-90 00-00'             4506   	l	er0,	NEAR _flSensorOut+04h
00:0096 12-92 00-00'             4507   	l	er2,	NEAR _flSensorOut+06h
00:009A 6E-F0                    4508   	push	xr0
00:009C FC E1                    4509   	add	sp,	#-4
00:009E 01-F0'00-00'             4510   	bl	__ftodu8sw
00:00A2 00'00                    4511   	mov	r0,	#BYTE1 OFFSET $$S272
00:00A4 00'01                    4512   	mov	r1,	#BYTE2 OFFSET $$S272
00:00A6 5E-F0                    4513   	push	er0
00:00A8 01-F0'00-00'             4514   	bl	_printf_n
00:00AC 12 E1                    4515   	add	sp,	#18
                                 4516   CBLOCKEND 215 2 1434
                                 4517   
                                 4518   ;;}
                                 4519   CLINEA 0000H 0001H 059AH 0001H 0001H
00:00AE 8E-F2                    4520   	pop	pc
                                 4521   CBLOCKEND 215 1 1434
                                 4522   CFUNCTIONEND 215
                                 4523   
                                 4524   
  --------------------------     4525   	rseg $$MainOp_Temperature_Sensor_21$main
                                 4526   CFUNCTION 216
                                 4527   
00:0000                          4528   _MainOp_Temperature_Sensor_21	:
                                 4529   CBLOCK 216 1 1447
                                 4530   
                                 4531   ;;{
                                 4532   CLINEA 0000H 0001H 05A7H 0001H 0001H
00:0000 CE-F8                    4533   	push	lr
                                 4534   CBLOCK 216 2 1447
                                 4535   CRET 0000H
                                 4536   
                                 4537   ;;	uniRawSensorOut._uint = ADC_Read(0);
                                 4538   CLINEA 0000H 0000H 05A8H 0002H 0025H
00:0002 00 00                    4539   	mov	r0,	#00h
00:0004 01-F0'00-00'             4540   	bl	_ADC_Read
00:0008 13-90 00-00'             4541   	st	er0,	NEAR _uniRawSensorOut
                                 4542   
                                 4543   ;;	flSensorOut[0] = uniRawSensorOut._uint*3.3f/1023;
                                 4544   CLINEA 0000H 0001H 05AAH 0002H 0032H
00:000C 00 E2                    4545   	mov	er2,	#0 
00:000E 6E-F0                    4546   	push	xr0
00:0010 01-F0'00-00'             4547   	bl	__fuldu8sw
00:0014 33 00                    4548   	mov	r0,	#033h
00:0016 33 01                    4549   	mov	r1,	#033h
00:0018 53 02                    4550   	mov	r2,	#053h
00:001A 40 03                    4551   	mov	r3,	#040h
00:001C 6E-F0                    4552   	push	xr0
00:001E 01-F0'00-00'             4553   	bl	__fmulu8sw
00:0022 04 E1                    4554   	add	sp,	#4 
00:0024 00 00                    4555   	mov	r0,	#00h
00:0026 C0 01                    4556   	mov	r1,	#0c0h
00:0028 7F 02                    4557   	mov	r2,	#07fh
00:002A 44 03                    4558   	mov	r3,	#044h
00:002C 6E-F0                    4559   	push	xr0
00:002E 01-F0'00-00'             4560   	bl	__fdivu8sw
00:0032 04 E1                    4561   	add	sp,	#4 
00:0034 2E-F0                    4562   	pop	xr0
00:0036 13-90 00-00'             4563   	st	er0,	NEAR _flSensorOut
00:003A 13-92 00-00'             4564   	st	er2,	NEAR _flSensorOut+02h
                                 4565   
                                 4566   ;;	flSensorOut[1] = Voltage2Temperature(flSensorOut[0], 1.3f, 30.0f, -0.0082f);
                                 4567   CLINEA 0000H 0001H 05ACH 0002H 004DH
00:003E 6E-F0                    4568   	push	xr0
00:0040 66 00                    4569   	mov	r0,	#066h
00:0042 66 01                    4570   	mov	r1,	#066h
00:0044 A6 02                    4571   	mov	r2,	#0a6h
00:0046 BF 03                    4572   	mov	r3,	#0bfh
00:0048 6E-F0                    4573   	push	xr0
00:004A 01-F0'00-00'             4574   	bl	__faddu8sw
00:004E 04 E1                    4575   	add	sp,	#4 
00:0050 4B 00                    4576   	mov	r0,	#04bh
00:0052 59 01                    4577   	mov	r1,	#059h
00:0054 06 02                    4578   	mov	r2,	#06h
00:0056 BC 03                    4579   	mov	r3,	#0bch
00:0058 6E-F0                    4580   	push	xr0
00:005A 01-F0'00-00'             4581   	bl	__fdivu8sw
00:005E 04 E1                    4582   	add	sp,	#4 
00:0060 00 E0                    4583   	mov	er0,	#0 
00:0062 F0 02                    4584   	mov	r2,	#0f0h
00:0064 41 03                    4585   	mov	r3,	#041h
00:0066 6E-F0                    4586   	push	xr0
00:0068 01-F0'00-00'             4587   	bl	__faddu8sw
00:006C 04 E1                    4588   	add	sp,	#4 
00:006E 2E-F0                    4589   	pop	xr0
00:0070 13-90 00-00'             4590   	st	er0,	NEAR _flSensorOut+04h
00:0074 13-92 00-00'             4591   	st	er2,	NEAR _flSensorOut+06h
                                 4592   
                                 4593   ;;	LEDOUT(ReverseBits((unsigned char)(uniRawSensorOut._uint>>3)));
                                 4594   CLINEA 0000H 0000H 05AEH 0002H 0040H
00:0078 12-90 00-00'             4595   	l	er0,	NEAR _uniRawSensorOut
00:007C 3D-90                    4596   	srlc	r0,	#03h
00:007E 01-F0'00-00'             4597   	bl	_ReverseBits
00:0082 11-90 60-F2              4598   	st	r0,	0f260h
                                 4599   
                                 4600   ;;	printf(ESC_ERASE2END "BDJ0601HFV> Temperature = %.02f[C]. Vsenout = %.02f[V]", flSensorOut[1], flSensorOut[0]);
                                 4601   CLINEA 0000H 0001H 05AFH 0002H 0072H
00:0086 12-90 00-00'             4602   	l	er0,	NEAR _flSensorOut
00:008A 12-92 00-00'             4603   	l	er2,	NEAR _flSensorOut+02h
00:008E 6E-F0                    4604   	push	xr0
00:0090 FC E1                    4605   	add	sp,	#-4
00:0092 01-F0'00-00'             4606   	bl	__ftodu8sw
00:0096 12-90 00-00'             4607   	l	er0,	NEAR _flSensorOut+04h
00:009A 12-92 00-00'             4608   	l	er2,	NEAR _flSensorOut+06h
00:009E 6E-F0                    4609   	push	xr0
00:00A0 FC E1                    4610   	add	sp,	#-4
00:00A2 01-F0'00-00'             4611   	bl	__ftodu8sw
00:00A6 00'00                    4612   	mov	r0,	#BYTE1 OFFSET $$S274
00:00A8 00'01                    4613   	mov	r1,	#BYTE2 OFFSET $$S274
00:00AA 5E-F0                    4614   	push	er0
00:00AC 01-F0'00-00'             4615   	bl	_printf_n
00:00B0 12 E1                    4616   	add	sp,	#18
                                 4617   
                                 4618   ;;	if(SENINTF_HDR1_GPIO0(D)==1)
                                 4619   CLINEA 0000H 0001H 05B0H 0002H 001DH
00:00B2 A1-A0 58-F2              4620   	tb	0f258h.2
00:00B6 08 C9                    4621   	beq	_$L275
                                 4622   
                                 4623   ;;		PRINTF(ESC_NEWLINE "BDJ0601HFV> Temperature Threshold Reached." ESC_PREVLINE);
                                 4624   CLINEA 0000H 0001H 05B1H 0003H 0050H
00:00B8 30 E0                    4625   	mov	er0,	#48
00:00BA 5E-F0                    4626   	push	er0
00:00BC 00'02                    4627   	mov	r2,	#BYTE1 OFFSET $$S277
00:00BE 00'03                    4628   	mov	r3,	#BYTE2 OFFSET $$S277
00:00C0 00 E0                    4629   	mov	er0,	#0 
00:00C2 01-F0'00-00'             4630   	bl	_write
                                 4631   
                                 4632   ;;	else
                                 4633   CLINEA 0000H 0001H 05B2H 0002H 0005H
00:00C6 07 CE                    4634   	bal	_$L278
00:00C8                          4635   _$L275 :
                                 4636   
                                 4637   ;;		PRINTF(ESC_NEWLINE "BDJ0601HFV> Temperature Threshold Not Reached." ESC_PREVLINE);
                                 4638   CLINEA 0000H 0001H 05B3H 0003H 0054H
00:00C8 34 E0                    4639   	mov	er0,	#52
00:00CA 5E-F0                    4640   	push	er0
00:00CC 00'02                    4641   	mov	r2,	#BYTE1 OFFSET $$S279
00:00CE 00'03                    4642   	mov	r3,	#BYTE2 OFFSET $$S279
00:00D0 00 E0                    4643   	mov	er0,	#0 
00:00D2 01-F0'00-00'             4644   	bl	_write
00:00D6                          4645   _$L278 :
00:00D6 02 E1                    4646   	add	sp,	#2 
                                 4647   CBLOCKEND 216 2 1460
                                 4648   
                                 4649   ;;}
                                 4650   CLINEA 0000H 0001H 05B4H 0001H 0001H
00:00D8 8E-F2                    4651   	pop	pc
                                 4652   CBLOCKEND 216 1 1460
                                 4653   CFUNCTIONEND 216
                                 4654   
                                 4655   
  --------------------------     4656   	rseg $$MainOp_Temperature_Sensor_22$main
                                 4657   CFUNCTION 217
                                 4658   
00:0000                          4659   _MainOp_Temperature_Sensor_22	:
                                 4660   CBLOCK 217 1 1473
                                 4661   
                                 4662   ;;{
                                 4663   CLINEA 0000H 0001H 05C1H 0001H 0001H
00:0000 CE-F8                    4664   	push	lr
                                 4665   CBLOCK 217 2 1473
                                 4666   CRET 0000H
                                 4667   
                                 4668   ;;	uniRawSensorOut._uint = ADC_Read(0);
                                 4669   CLINEA 0000H 0000H 05C2H 0002H 0025H
00:0002 00 00                    4670   	mov	r0,	#00h
00:0004 01-F0'00-00'             4671   	bl	_ADC_Read
00:0008 13-90 00-00'             4672   	st	er0,	NEAR _uniRawSensorOut
                                 4673   
                                 4674   ;;	flSensorOut[0] = uniRawSensorOut._uint*3.3f/1023;
                                 4675   CLINEA 0000H 0001H 05C4H 0002H 0032H
00:000C 00 E2                    4676   	mov	er2,	#0 
00:000E 6E-F0                    4677   	push	xr0
00:0010 01-F0'00-00'             4678   	bl	__fuldu8sw
00:0014 33 00                    4679   	mov	r0,	#033h
00:0016 33 01                    4680   	mov	r1,	#033h
00:0018 53 02                    4681   	mov	r2,	#053h
00:001A 40 03                    4682   	mov	r3,	#040h
00:001C 6E-F0                    4683   	push	xr0
00:001E 01-F0'00-00'             4684   	bl	__fmulu8sw
00:0022 04 E1                    4685   	add	sp,	#4 
00:0024 00 00                    4686   	mov	r0,	#00h
00:0026 C0 01                    4687   	mov	r1,	#0c0h
00:0028 7F 02                    4688   	mov	r2,	#07fh
00:002A 44 03                    4689   	mov	r3,	#044h
00:002C 6E-F0                    4690   	push	xr0
00:002E 01-F0'00-00'             4691   	bl	__fdivu8sw
00:0032 04 E1                    4692   	add	sp,	#4 
00:0034 2E-F0                    4693   	pop	xr0
00:0036 13-90 00-00'             4694   	st	er0,	NEAR _flSensorOut
00:003A 13-92 00-00'             4695   	st	er2,	NEAR _flSensorOut+02h
                                 4696   
                                 4697   ;;	flSensorOut[1] = Voltage2Temperature(flSensorOut[0], 1.753f, 30.0f, -0.01068f);
                                 4698   CLINEA 0000H 0001H 05C6H 0002H 0050H
00:003E 6E-F0                    4699   	push	xr0
00:0040 4E 00                    4700   	mov	r0,	#04eh
00:0042 62 01                    4701   	mov	r1,	#062h
00:0044 E0 02                    4702   	mov	r2,	#0e0h
00:0046 BF 03                    4703   	mov	r3,	#0bfh
00:0048 6E-F0                    4704   	push	xr0
00:004A 01-F0'00-00'             4705   	bl	__faddu8sw
00:004E 04 E1                    4706   	add	sp,	#4 
00:0050 2B 00                    4707   	mov	r0,	#02bh
00:0052 FB 01                    4708   	mov	r1,	#0fbh
00:0054 2E 02                    4709   	mov	r2,	#02eh
00:0056 BC 03                    4710   	mov	r3,	#0bch
00:0058 6E-F0                    4711   	push	xr0
00:005A 01-F0'00-00'             4712   	bl	__fdivu8sw
00:005E 04 E1                    4713   	add	sp,	#4 
00:0060 00 E0                    4714   	mov	er0,	#0 
00:0062 F0 02                    4715   	mov	r2,	#0f0h
00:0064 41 03                    4716   	mov	r3,	#041h
00:0066 6E-F0                    4717   	push	xr0
00:0068 01-F0'00-00'             4718   	bl	__faddu8sw
00:006C 04 E1                    4719   	add	sp,	#4 
00:006E 2E-F0                    4720   	pop	xr0
00:0070 13-90 00-00'             4721   	st	er0,	NEAR _flSensorOut+04h
00:0074 13-92 00-00'             4722   	st	er2,	NEAR _flSensorOut+06h
                                 4723   
                                 4724   ;;	LEDOUT(ReverseBits((unsigned char)(uniRawSensorOut._uint>>3)));
                                 4725   CLINEA 0000H 0000H 05C8H 0002H 0040H
00:0078 12-90 00-00'             4726   	l	er0,	NEAR _uniRawSensorOut
00:007C 3D-90                    4727   	srlc	r0,	#03h
00:007E 01-F0'00-00'             4728   	bl	_ReverseBits
00:0082 11-90 60-F2              4729   	st	r0,	0f260h
                                 4730   
                                 4731   ;;	printf(ESC_STX "BDE0600G> Temperature \t\t\t= %.02f[C]." ESC_NEWLINE, flSensorOut[1]);
                                 4732   CLINEA 0000H 0001H 05C9H 0002H 0057H
00:0086 12-90 00-00'             4733   	l	er0,	NEAR _flSensorOut+04h
00:008A 12-92 00-00'             4734   	l	er2,	NEAR _flSensorOut+06h
00:008E 6E-F0                    4735   	push	xr0
00:0090 FC E1                    4736   	add	sp,	#-4
00:0092 01-F0'00-00'             4737   	bl	__ftodu8sw
00:0096 00'00                    4738   	mov	r0,	#BYTE1 OFFSET $$S281
00:0098 00'01                    4739   	mov	r1,	#BYTE2 OFFSET $$S281
00:009A 5E-F0                    4740   	push	er0
00:009C 01-F0'00-00'             4741   	bl	_printf_n
00:00A0 0A E1                    4742   	add	sp,	#10
                                 4743   CBLOCKEND 217 2 1486
                                 4744   
                                 4745   ;;}
                                 4746   CLINEA 0000H 0001H 05CEH 0001H 0001H
00:00A2 8E-F2                    4747   	pop	pc
                                 4748   CBLOCKEND 217 1 1486
                                 4749   CFUNCTIONEND 217
                                 4750   
                                 4751   
  --------------------------     4752   	rseg $$MainOp_Temperature_Sensor_23$main
                                 4753   CFUNCTION 218
                                 4754   
00:0000                          4755   _MainOp_Temperature_Sensor_23	:
                                 4756   CBLOCK 218 1 1499
                                 4757   
                                 4758   ;;{
                                 4759   CLINEA 0000H 0001H 05DBH 0001H 0001H
00:0000 CE-F8                    4760   	push	lr
                                 4761   CBLOCK 218 2 1499
                                 4762   CRET 0000H
                                 4763   
                                 4764   ;;	uniRawSensorOut._uint = ADC_Read(0);
                                 4765   CLINEA 0000H 0000H 05DCH 0002H 0025H
00:0002 00 00                    4766   	mov	r0,	#00h
00:0004 01-F0'00-00'             4767   	bl	_ADC_Read
00:0008 13-90 00-00'             4768   	st	er0,	NEAR _uniRawSensorOut
                                 4769   
                                 4770   ;;	flSensorOut[0] = uniRawSensorOut._uint*3.3f/1023;
                                 4771   CLINEA 0000H 0001H 05DEH 0002H 0032H
00:000C 00 E2                    4772   	mov	er2,	#0 
00:000E 6E-F0                    4773   	push	xr0
00:0010 01-F0'00-00'             4774   	bl	__fuldu8sw
00:0014 33 00                    4775   	mov	r0,	#033h
00:0016 33 01                    4776   	mov	r1,	#033h
00:0018 53 02                    4777   	mov	r2,	#053h
00:001A 40 03                    4778   	mov	r3,	#040h
00:001C 6E-F0                    4779   	push	xr0
00:001E 01-F0'00-00'             4780   	bl	__fmulu8sw
00:0022 04 E1                    4781   	add	sp,	#4 
00:0024 00 00                    4782   	mov	r0,	#00h
00:0026 C0 01                    4783   	mov	r1,	#0c0h
00:0028 7F 02                    4784   	mov	r2,	#07fh
00:002A 44 03                    4785   	mov	r3,	#044h
00:002C 6E-F0                    4786   	push	xr0
00:002E 01-F0'00-00'             4787   	bl	__fdivu8sw
00:0032 04 E1                    4788   	add	sp,	#4 
00:0034 2E-F0                    4789   	pop	xr0
00:0036 13-90 00-00'             4790   	st	er0,	NEAR _flSensorOut
00:003A 13-92 00-00'             4791   	st	er2,	NEAR _flSensorOut+02h
                                 4792   
                                 4793   ;;	flSensorOut[1] = Voltage2Temperature(flSensorOut[0], 1.3f, 30.0f, -0.0082f);
                                 4794   CLINEA 0000H 0001H 05E0H 0002H 004DH
00:003E 6E-F0                    4795   	push	xr0
00:0040 66 00                    4796   	mov	r0,	#066h
00:0042 66 01                    4797   	mov	r1,	#066h
00:0044 A6 02                    4798   	mov	r2,	#0a6h
00:0046 BF 03                    4799   	mov	r3,	#0bfh
00:0048 6E-F0                    4800   	push	xr0
00:004A 01-F0'00-00'             4801   	bl	__faddu8sw
00:004E 04 E1                    4802   	add	sp,	#4 
00:0050 4B 00                    4803   	mov	r0,	#04bh
00:0052 59 01                    4804   	mov	r1,	#059h
00:0054 06 02                    4805   	mov	r2,	#06h
00:0056 BC 03                    4806   	mov	r3,	#0bch
00:0058 6E-F0                    4807   	push	xr0
00:005A 01-F0'00-00'             4808   	bl	__fdivu8sw
00:005E 04 E1                    4809   	add	sp,	#4 
00:0060 00 E0                    4810   	mov	er0,	#0 
00:0062 F0 02                    4811   	mov	r2,	#0f0h
00:0064 41 03                    4812   	mov	r3,	#041h
00:0066 6E-F0                    4813   	push	xr0
00:0068 01-F0'00-00'             4814   	bl	__faddu8sw
00:006C 04 E1                    4815   	add	sp,	#4 
00:006E 2E-F0                    4816   	pop	xr0
00:0070 13-90 00-00'             4817   	st	er0,	NEAR _flSensorOut+04h
00:0074 13-92 00-00'             4818   	st	er2,	NEAR _flSensorOut+06h
                                 4819   
                                 4820   ;;	LEDOUT(ReverseBits((unsigned char)(uniRawSensorOut._uint>>3)));
                                 4821   CLINEA 0000H 0000H 05E2H 0002H 0040H
00:0078 12-90 00-00'             4822   	l	er0,	NEAR _uniRawSensorOut
00:007C 3D-90                    4823   	srlc	r0,	#03h
00:007E 01-F0'00-00'             4824   	bl	_ReverseBits
00:0082 11-90 60-F2              4825   	st	r0,	0f260h
                                 4826   
                                 4827   ;;	printf(ESC_ERASE2END "BDJ0550HFV> Temperature = %.02f[C]. Vsenout = %.02f[V]", flSensorOut[1], flSensorOut[0]);
                                 4828   CLINEA 0000H 0001H 05E3H 0002H 0072H
00:0086 12-90 00-00'             4829   	l	er0,	NEAR _flSensorOut
00:008A 12-92 00-00'             4830   	l	er2,	NEAR _flSensorOut+02h
00:008E 6E-F0                    4831   	push	xr0
00:0090 FC E1                    4832   	add	sp,	#-4
00:0092 01-F0'00-00'             4833   	bl	__ftodu8sw
00:0096 12-90 00-00'             4834   	l	er0,	NEAR _flSensorOut+04h
00:009A 12-92 00-00'             4835   	l	er2,	NEAR _flSensorOut+06h
00:009E 6E-F0                    4836   	push	xr0
00:00A0 FC E1                    4837   	add	sp,	#-4
00:00A2 01-F0'00-00'             4838   	bl	__ftodu8sw
00:00A6 00'00                    4839   	mov	r0,	#BYTE1 OFFSET $$S283
00:00A8 00'01                    4840   	mov	r1,	#BYTE2 OFFSET $$S283
00:00AA 5E-F0                    4841   	push	er0
00:00AC 01-F0'00-00'             4842   	bl	_printf_n
00:00B0 12 E1                    4843   	add	sp,	#18
                                 4844   
                                 4845   ;;	if(SENINTF_HDR1_GPIO0(D)==0)
                                 4846   CLINEA 0000H 0001H 05E4H 0002H 001DH
00:00B2 A1-A0 58-F2              4847   	tb	0f258h.2
00:00B6 08 C8                    4848   	bne	_$L284
                                 4849   
                                 4850   ;;		PRINTF(ESC_NEWLINE "BDJ0550HFV> Temperature Threshold Reached." ESC_PREVLINE);
                                 4851   CLINEA 0000H 0001H 05E5H 0003H 0050H
00:00B8 30 E0                    4852   	mov	er0,	#48
00:00BA 5E-F0                    4853   	push	er0
00:00BC 00'02                    4854   	mov	r2,	#BYTE1 OFFSET $$S286
00:00BE 00'03                    4855   	mov	r3,	#BYTE2 OFFSET $$S286
00:00C0 00 E0                    4856   	mov	er0,	#0 
00:00C2 01-F0'00-00'             4857   	bl	_write
                                 4858   
                                 4859   ;;	else
                                 4860   CLINEA 0000H 0001H 05E6H 0002H 0005H
00:00C6 07 CE                    4861   	bal	_$L287
00:00C8                          4862   _$L284 :
                                 4863   
                                 4864   ;;		PRINTF(ESC_NEWLINE "BDJ0550HFV> Temperature Threshold Not Reached." ESC_PREVLINE);
                                 4865   CLINEA 0000H 0001H 05E7H 0003H 0054H
00:00C8 34 E0                    4866   	mov	er0,	#52
00:00CA 5E-F0                    4867   	push	er0
00:00CC 00'02                    4868   	mov	r2,	#BYTE1 OFFSET $$S288
00:00CE 00'03                    4869   	mov	r3,	#BYTE2 OFFSET $$S288
00:00D0 00 E0                    4870   	mov	er0,	#0 
00:00D2 01-F0'00-00'             4871   	bl	_write
00:00D6                          4872   _$L287 :
00:00D6 02 E1                    4873   	add	sp,	#2 
                                 4874   CBLOCKEND 218 2 1512
                                 4875   
                                 4876   ;;}
                                 4877   CLINEA 0000H 0001H 05E8H 0001H 0001H
00:00D8 8E-F2                    4878   	pop	pc
                                 4879   CBLOCKEND 218 1 1512
                                 4880   CFUNCTIONEND 218
                                 4881   
                                 4882   
  --------------------------     4883   	rseg $$Init_Hall_Effect_Sensors_1$main
                                 4884   CFUNCTION 219
                                 4885   
00:0000                          4886   _Init_Hall_Effect_Sensors_1	:
                                 4887   CBLOCK 219 1 1525
                                 4888   
                                 4889   ;;{
                                 4890   CLINEA 0000H 0001H 05F5H 0001H 0001H
                                 4891   CBLOCK 219 2 1525
                                 4892   
                                 4893   ;;	SENINTF_HDR1_GPIO0(DIR) = 1;
                                 4894   CLINEA 0000H 0001H 05F7H 0002H 001DH
00:0000 A0-A0 59-F2              4895   	sb	0f259h.2
                                 4896   
                                 4897   ;;	SENINTF_HDR1_GPIO1(DIR) = 1;
                                 4898   CLINEA 0000H 0001H 05F8H 0002H 001DH
00:0004 B0-A0 59-F2              4899   	sb	0f259h.3
                                 4900   
                                 4901   ;;	SENINTF_HDR1_GPIO0(C0) = 0;
                                 4902   CLINEA 0000H 0001H 05FAH 0002H 001CH
00:0008 A2-A0 5A-F2              4903   	rb	0f25ah.2
                                 4904   
                                 4905   ;;	SENINTF_HDR1_GPIO0(C1) = 1;
                                 4906   CLINEA 0000H 0001H 05FBH 0002H 001CH
00:000C A0-A0 5B-F2              4907   	sb	0f25bh.2
                                 4908   
                                 4909   ;;	SENINTF_HDR1_GPIO1(C0) = 0;
                                 4910   CLINEA 0000H 0001H 05FCH 0002H 001CH
00:0010 B2-A0 5A-F2              4911   	rb	0f25ah.3
                                 4912   
                                 4913   ;;	SENINTF_HDR1_GPIO1(C1) = 1;
                                 4914   CLINEA 0000H 0001H 05FDH 0002H 001CH
00:0014 B0-A0 5B-F2              4915   	sb	0f25bh.3
                                 4916   
                                 4917   ;;	SENINTF_HDR1_GPIO0(MD0) = 0;
                                 4918   CLINEA 0000H 0001H 05FFH 0002H 001DH
00:0018 A2-A0 5C-F2              4919   	rb	0f25ch.2
                                 4920   
                                 4921   ;;	SENINTF_HDR1_GPIO0(MD1) = 0;
                                 4922   CLINEA 0000H 0001H 0600H 0002H 001DH
00:001C A2-A0 5D-F2              4923   	rb	0f25dh.2
                                 4924   
                                 4925   ;;	SENINTF_HDR1_GPIO1(MD0) = 0;
                                 4926   CLINEA 0000H 0001H 0601H 0002H 001DH
00:0020 B2-A0 5C-F2              4927   	rb	0f25ch.3
                                 4928   
                                 4929   ;;	SENINTF_HDR1_GPIO1(MD1) = 0;
                                 4930   CLINEA 0000H 0001H 0602H 0002H 001DH
00:0024 B2-A0 5D-F2              4931   	rb	0f25dh.3
                                 4932   CBLOCKEND 219 2 1539
                                 4933   
                                 4934   ;;}
                                 4935   CLINEA 0000H 0001H 0603H 0001H 0001H
00:0028 1F-FE                    4936   	rt
                                 4937   CBLOCKEND 219 1 1539
                                 4938   CFUNCTIONEND 219
                                 4939   
                                 4940   
  --------------------------     4941   	rseg $$Init_Hall_Effect_Sensors_2$main
                                 4942   CFUNCTION 220
                                 4943   
00:0000                          4944   _Init_Hall_Effect_Sensors_2	:
                                 4945   CBLOCK 220 1 1552
                                 4946   
                                 4947   ;;{
                                 4948   CLINEA 0000H 0001H 0610H 0001H 0001H
                                 4949   CBLOCK 220 2 1552
                                 4950   
                                 4951   ;;	SENINTF_HDR1_GPIO0(DIR) = 1;
                                 4952   CLINEA 0000H 0001H 0612H 0002H 001DH
00:0000 A0-A0 59-F2              4953   	sb	0f259h.2
                                 4954   
                                 4955   ;;	SENINTF_HDR1_GPIO0(C0) = 0;
                                 4956   CLINEA 0000H 0001H 0614H 0002H 001CH
00:0004 A2-A0 5A-F2              4957   	rb	0f25ah.2
                                 4958   
                                 4959   ;;	SENINTF_HDR1_GPIO0(C1) = 1;
                                 4960   CLINEA 0000H 0001H 0615H 0002H 001CH
00:0008 A0-A0 5B-F2              4961   	sb	0f25bh.2
                                 4962   
                                 4963   ;;	SENINTF_HDR1_GPIO0(MD0) = 0;
                                 4964   CLINEA 0000H 0001H 0617H 0002H 001DH
00:000C A2-A0 5C-F2              4965   	rb	0f25ch.2
                                 4966   
                                 4967   ;;	SENINTF_HDR1_GPIO0(MD1) = 0;
                                 4968   CLINEA 0000H 0001H 0618H 0002H 001DH
00:0010 A2-A0 5D-F2              4969   	rb	0f25dh.2
                                 4970   
                                 4971   ;;	SENINTF_HDR1_GPIO1(DIR) = 1;
                                 4972   CLINEA 0000H 0001H 061AH 0002H 001DH
00:0014 B0-A0 59-F2              4973   	sb	0f259h.3
                                 4974   
                                 4975   ;;	SENINTF_HDR1_GPIO1(C0) = 0;
                                 4976   CLINEA 0000H 0001H 061CH 0002H 001CH
00:0018 B2-A0 5A-F2              4977   	rb	0f25ah.3
                                 4978   
                                 4979   ;;	SENINTF_HDR1_GPIO1(C1) = 1;
                                 4980   CLINEA 0000H 0001H 061DH 0002H 001CH
00:001C B0-A0 5B-F2              4981   	sb	0f25bh.3
                                 4982   
                                 4983   ;;	SENINTF_HDR1_GPIO1(MD0) = 0;
                                 4984   CLINEA 0000H 0001H 061FH 0002H 001DH
00:0020 B2-A0 5C-F2              4985   	rb	0f25ch.3
                                 4986   
                                 4987   ;;	SENINTF_HDR1_GPIO1(MD1) = 0;
                                 4988   CLINEA 0000H 0001H 0620H 0002H 001DH
00:0024 B2-A0 5D-F2              4989   	rb	0f25dh.3
                                 4990   CBLOCKEND 220 2 1569
                                 4991   
                                 4992   ;;}
                                 4993   CLINEA 0000H 0001H 0621H 0001H 0001H
00:0028 1F-FE                    4994   	rt
                                 4995   CBLOCKEND 220 1 1569
                                 4996   CFUNCTIONEND 220
                                 4997   
                                 4998   
  --------------------------     4999   	rseg $$Init_Pressure_Sensor_3$main
                                 5000   CFUNCTION 221
                                 5001   
00:0000                          5002   _Init_Pressure_Sensor_3	:
                                 5003   CBLOCK 221 1 1582
                                 5004   
                                 5005   ;;{
                                 5006   CLINEA 0000H 0001H 062EH 0001H 0001H
00:0000 CE-F8                    5007   	push	lr
                                 5008   CBLOCK 221 2 1582
                                 5009   CRET 0000H
                                 5010   
                                 5011   ;;	I2C_Write(BM1383GLV_I2C_ADDR,  &BM1383GLV_POWER_DOWN,  1,  &BM1383GLV_POWER_ON, 1);
                                 5012   CLINEA 0000H 0001H 062FH 0002H 0054H
00:0002 01 00                    5013   	mov	r0,	#01h
00:0004 4E-F0                    5014   	push	r0
00:0006 00'00                    5015   	mov	r0,	#BYTE1 OFFSET _BM1383GLV_POWER_ON
00:0008 00'01                    5016   	mov	r1,	#BYTE2 OFFSET _BM1383GLV_POWER_ON
00:000A 5E-F0                    5017   	push	er0
00:000C 01 00                    5018   	mov	r0,	#01h
00:000E 4E-F0                    5019   	push	r0
00:0010 00'02                    5020   	mov	r2,	#BYTE1 OFFSET _BM1383GLV_POWER_DOWN
00:0012 00'03                    5021   	mov	r3,	#BYTE2 OFFSET _BM1383GLV_POWER_DOWN
00:0014 5D 00                    5022   	mov	r0,	#05dh
00:0016 01-F0'00-00'             5023   	bl	_I2C_Write
00:001A 06 E1                    5024   	add	sp,	#6 
                                 5025   
                                 5026   ;;	I2C_Write(BM1383GLV_I2C_ADDR,  &BM1383GLV_SLEEP,  1,  &BM1383GLV_SLEEP_ACT, 1);
                                 5027   CLINEA 0000H 0001H 0630H 0002H 0050H
00:001C 01 00                    5028   	mov	r0,	#01h
00:001E 4E-F0                    5029   	push	r0
00:0020 00'00                    5030   	mov	r0,	#BYTE1 OFFSET _BM1383GLV_SLEEP_ACT
00:0022 00'01                    5031   	mov	r1,	#BYTE2 OFFSET _BM1383GLV_SLEEP_ACT
00:0024 5E-F0                    5032   	push	er0
00:0026 01 00                    5033   	mov	r0,	#01h
00:0028 4E-F0                    5034   	push	r0
00:002A 00'02                    5035   	mov	r2,	#BYTE1 OFFSET _BM1383GLV_SLEEP
00:002C 00'03                    5036   	mov	r3,	#BYTE2 OFFSET _BM1383GLV_SLEEP
00:002E 5D 00                    5037   	mov	r0,	#05dh
00:0030 01-F0'00-00'             5038   	bl	_I2C_Write
00:0034 06 E1                    5039   	add	sp,	#6 
                                 5040   
                                 5041   ;;	I2C_Write(BM1383GLV_I2C_ADDR,  &BM1383GLV_MODE_CONTROL,  1,  &BM1383GLV_MODE_CONTROL_REG, 1);
                                 5042   CLINEA 0000H 0001H 0631H 0002H 005EH
00:0036 01 00                    5043   	mov	r0,	#01h
00:0038 4E-F0                    5044   	push	r0
00:003A 00'00                    5045   	mov	r0,	#BYTE1 OFFSET _BM1383GLV_MODE_CONTROL_REG
00:003C 00'01                    5046   	mov	r1,	#BYTE2 OFFSET _BM1383GLV_MODE_CONTROL_REG
00:003E 5E-F0                    5047   	push	er0
00:0040 01 00                    5048   	mov	r0,	#01h
00:0042 4E-F0                    5049   	push	r0
00:0044 00'02                    5050   	mov	r2,	#BYTE1 OFFSET _BM1383GLV_MODE_CONTROL
00:0046 00'03                    5051   	mov	r3,	#BYTE2 OFFSET _BM1383GLV_MODE_CONTROL
00:0048 5D 00                    5052   	mov	r0,	#05dh
00:004A 01-F0'00-00'             5053   	bl	_I2C_Write
00:004E 06 E1                    5054   	add	sp,	#6 
                                 5055   CBLOCKEND 221 2 1586
                                 5056   
                                 5057   ;;}
                                 5058   CLINEA 0000H 0001H 0632H 0001H 0001H
00:0050 8E-F2                    5059   	pop	pc
                                 5060   CBLOCKEND 221 1 1586
                                 5061   CFUNCTIONEND 221
                                 5062   
                                 5063   
  --------------------------     5064   	rseg $$Init_Color_Sensor_4$main
                                 5065   CFUNCTION 222
                                 5066   
00:0000                          5067   _Init_Color_Sensor_4	:
                                 5068   CBLOCK 222 1 1600
                                 5069   
                                 5070   ;;{
                                 5071   CLINEA 0000H 0001H 0640H 0001H 0001H
00:0000 CE-F8                    5072   	push	lr
                                 5073   CBLOCK 222 2 1600
                                 5074   CRET 0000H
                                 5075   
                                 5076   ;;	I2C_Write(BH1745_I2C_ADDR, &BH1745_PERSISTENCE  , 1, 0x03, 1);		// see data sheet pg. 9
                                 5077   CLINEA 0000H 0001H 0641H 0002H 0058H
00:0002 01 00                    5078   	mov	r0,	#01h
00:0004 4E-F0                    5079   	push	r0
00:0006 03 E0                    5080   	mov	er0,	#3 
00:0008 5E-F0                    5081   	push	er0
00:000A 01 00                    5082   	mov	r0,	#01h
00:000C 4E-F0                    5083   	push	r0
00:000E 00'02                    5084   	mov	r2,	#BYTE1 OFFSET _BH1745_PERSISTENCE
00:0010 00'03                    5085   	mov	r3,	#BYTE2 OFFSET _BH1745_PERSISTENCE
00:0012 39 00                    5086   	mov	r0,	#039h
00:0014 01-F0'00-00'             5087   	bl	_I2C_Write
00:0018 06 E1                    5088   	add	sp,	#6 
                                 5089   
                                 5090   ;;	I2C_Write(BH1745_I2C_ADDR, &BH1745_MODE_CONTROL1, 1, 0x00, 1);  	//000 : 160msec
                                 5091   CLINEA 0000H 0001H 0642H 0002H 0051H
00:001A 01 00                    5092   	mov	r0,	#01h
00:001C 4E-F0                    5093   	push	r0
00:001E 00 E0                    5094   	mov	er0,	#0 
00:0020 5E-F0                    5095   	push	er0
00:0022 01 00                    5096   	mov	r0,	#01h
00:0024 4E-F0                    5097   	push	r0
00:0026 00'02                    5098   	mov	r2,	#BYTE1 OFFSET _BH1745_MODE_CONTROL1
00:0028 00'03                    5099   	mov	r3,	#BYTE2 OFFSET _BH1745_MODE_CONTROL1
00:002A 39 00                    5100   	mov	r0,	#039h
00:002C 01-F0'00-00'             5101   	bl	_I2C_Write
00:0030 06 E1                    5102   	add	sp,	#6 
                                 5103   
                                 5104   ;;	I2C_Write(BH1745_I2C_ADDR, &BH1745_MODE_CONTROL2, 1, 0x92, 1); 		//16x gain, RGBC_EN
                                 5105   CLINEA 0000H 0001H 0643H 0002H 0055H
00:0032 01 00                    5106   	mov	r0,	#01h
00:0034 4E-F0                    5107   	push	r0
00:0036 92 00                    5108   	mov	r0,	#092h
00:0038 00 01                    5109   	mov	r1,	#00h
00:003A 5E-F0                    5110   	push	er0
00:003C 01 00                    5111   	mov	r0,	#01h
00:003E 4E-F0                    5112   	push	r0
00:0040 00'02                    5113   	mov	r2,	#BYTE1 OFFSET _BH1745_MODE_CONTROL2
00:0042 00'03                    5114   	mov	r3,	#BYTE2 OFFSET _BH1745_MODE_CONTROL2
00:0044 39 00                    5115   	mov	r0,	#039h
00:0046 01-F0'00-00'             5116   	bl	_I2C_Write
00:004A 06 E1                    5117   	add	sp,	#6 
                                 5118   
                                 5119   ;;	I2C_Write(BH1745_I2C_ADDR, &BH1745_MODE_CONTROL3, 1, 0x02, 1);		//default 0x02
                                 5120   CLINEA 0000H 0001H 0644H 0002H 004FH
00:004C 01 00                    5121   	mov	r0,	#01h
00:004E 4E-F0                    5122   	push	r0
00:0050 02 E0                    5123   	mov	er0,	#2 
00:0052 5E-F0                    5124   	push	er0
00:0054 01 00                    5125   	mov	r0,	#01h
00:0056 4E-F0                    5126   	push	r0
00:0058 00'02                    5127   	mov	r2,	#BYTE1 OFFSET _BH1745_MODE_CONTROL3
00:005A 00'03                    5128   	mov	r3,	#BYTE2 OFFSET _BH1745_MODE_CONTROL3
00:005C 39 00                    5129   	mov	r0,	#039h
00:005E 01-F0'00-00'             5130   	bl	_I2C_Write
00:0062 06 E1                    5131   	add	sp,	#6 
                                 5132   CBLOCKEND 222 2 1605
                                 5133   
                                 5134   ;;}
                                 5135   CLINEA 0000H 0001H 0645H 0001H 0001H
00:0064 8E-F2                    5136   	pop	pc
                                 5137   CBLOCKEND 222 1 1605
                                 5138   CFUNCTIONEND 222
                                 5139   
                                 5140   
  --------------------------     5141   	rseg $$Init_Ambient_Light_Sensor_5$main
                                 5142   CFUNCTION 223
                                 5143   
00:0000                          5144   _Init_Ambient_Light_Sensor_5	:
                                 5145   CBLOCK 223 1 1618
                                 5146   
                                 5147   ;;{
                                 5148   CLINEA 0000H 0001H 0652H 0001H 0001H
                                 5149   CBLOCK 223 2 1618
                                 5150   
                                 5151   ;;	SENINTF_HDR1_GPIO0(DIR) = 1;
                                 5152   CLINEA 0000H 0001H 0654H 0002H 001DH
00:0000 A0-A0 59-F2              5153   	sb	0f259h.2
                                 5154   
                                 5155   ;;	SENINTF_HDR1_GPIO1(DIR) = 1;
                                 5156   CLINEA 0000H 0001H 0655H 0002H 001DH
00:0004 B0-A0 59-F2              5157   	sb	0f259h.3
                                 5158   
                                 5159   ;;	SENINTF_HDR1_GPIO0(C0) = 0;
                                 5160   CLINEA 0000H 0001H 0657H 0002H 001CH
00:0008 A2-A0 5A-F2              5161   	rb	0f25ah.2
                                 5162   
                                 5163   ;;	SENINTF_HDR1_GPIO0(C1) = 1;
                                 5164   CLINEA 0000H 0001H 0658H 0002H 001CH
00:000C A0-A0 5B-F2              5165   	sb	0f25bh.2
                                 5166   
                                 5167   ;;	SENINTF_HDR1_GPIO1(C0) = 0;
                                 5168   CLINEA 0000H 0001H 0659H 0002H 001CH
00:0010 B2-A0 5A-F2              5169   	rb	0f25ah.3
                                 5170   
                                 5171   ;;	SENINTF_HDR1_GPIO1(C1) = 1;
                                 5172   CLINEA 0000H 0001H 065AH 0002H 001CH
00:0014 B0-A0 5B-F2              5173   	sb	0f25bh.3
                                 5174   
                                 5175   ;;	SENINTF_HDR1_GPIO0(MD0) = 0;
                                 5176   CLINEA 0000H 0001H 065CH 0002H 001DH
00:0018 A2-A0 5C-F2              5177   	rb	0f25ch.2
                                 5178   
                                 5179   ;;	SENINTF_HDR1_GPIO0(MD1) = 0;
                                 5180   CLINEA 0000H 0001H 065DH 0002H 001DH
00:001C A2-A0 5D-F2              5181   	rb	0f25dh.2
                                 5182   
                                 5183   ;;	SENINTF_HDR1_GPIO1(MD0) = 0;
                                 5184   CLINEA 0000H 0001H 065EH 0002H 001DH
00:0020 B2-A0 5C-F2              5185   	rb	0f25ch.3
                                 5186   
                                 5187   ;;	SENINTF_HDR1_GPIO1(MD1) = 0;
                                 5188   CLINEA 0000H 0001H 065FH 0002H 001DH
00:0024 B2-A0 5D-F2              5189   	rb	0f25dh.3
                                 5190   CBLOCKEND 223 2 1632
                                 5191   
                                 5192   ;;}
                                 5193   CLINEA 0000H 0001H 0660H 0001H 0001H
00:0028 1F-FE                    5194   	rt
                                 5195   CBLOCKEND 223 1 1632
                                 5196   CFUNCTIONEND 223
                                 5197   
                                 5198   
  --------------------------     5199   	rseg $$Init_Ambient_Light_Sensor_6$main
                                 5200   CFUNCTION 224
                                 5201   
00:0000                          5202   _Init_Ambient_Light_Sensor_6	:
                                 5203   CBLOCK 224 1 1645
                                 5204   
                                 5205   ;;{
                                 5206   CLINEA 0000H 0001H 066DH 0001H 0001H
00:0000 CE-F8                    5207   	push	lr
                                 5208   CBLOCK 224 2 1645
                                 5209   CRET 0000H
                                 5210   
                                 5211   ;;	I2C_Write(BH17xxFVC_ADDR_1, NULL, 0, &BH17xxFVC_PWR_ON, 1);
                                 5212   CLINEA 0000H 0001H 066FH 0002H 003CH
00:0002 01 00                    5213   	mov	r0,	#01h
00:0004 4E-F0                    5214   	push	r0
00:0006 00'00                    5215   	mov	r0,	#BYTE1 OFFSET _BH17xxFVC_PWR_ON
00:0008 00'01                    5216   	mov	r1,	#BYTE2 OFFSET _BH17xxFVC_PWR_ON
00:000A 5E-F0                    5217   	push	er0
00:000C 00 00                    5218   	mov	r0,	#00h
00:000E 4E-F0                    5219   	push	r0
00:0010 00 E2                    5220   	mov	er2,	#0 
00:0012 23 00                    5221   	mov	r0,	#023h
00:0014 01-F0'00-00'             5222   	bl	_I2C_Write
00:0018 06 E1                    5223   	add	sp,	#6 
                                 5224   
                                 5225   ;;	I2C_Write(BH17xxFVC_ADDR_1, NULL, 0, &BH1710FVC_CONT_M_RES_MOD, 1);
                                 5226   CLINEA 0000H 0001H 0671H 0002H 0044H
00:001A 01 00                    5227   	mov	r0,	#01h
00:001C 4E-F0                    5228   	push	r0
00:001E 00'00                    5229   	mov	r0,	#BYTE1 OFFSET _BH1710FVC_CONT_M_RES_MOD
00:0020 00'01                    5230   	mov	r1,	#BYTE2 OFFSET _BH1710FVC_CONT_M_RES_MOD
00:0022 5E-F0                    5231   	push	er0
00:0024 00 00                    5232   	mov	r0,	#00h
00:0026 4E-F0                    5233   	push	r0
00:0028 00 E2                    5234   	mov	er2,	#0 
00:002A 23 00                    5235   	mov	r0,	#023h
00:002C 01-F0'00-00'             5236   	bl	_I2C_Write
00:0030 06 E1                    5237   	add	sp,	#6 
                                 5238   
                                 5239   ;;	NOPms(24);
                                 5240   CLINEA 0000H 0001H 0676H 0002H 000BH
00:0032 18 E0                    5241   	mov	er0,	#24
00:0034 01-F0'00-00'             5242   	bl	_NOPms
                                 5243   CBLOCKEND 224 2 1655
                                 5244   
                                 5245   ;;}
                                 5246   CLINEA 0000H 0001H 0677H 0001H 0001H
00:0038 8E-F2                    5247   	pop	pc
                                 5248   CBLOCKEND 224 1 1655
                                 5249   CFUNCTIONEND 224
                                 5250   
                                 5251   
  --------------------------     5252   	rseg $$Init_Ambient_Light_Sensor_7$main
                                 5253   CFUNCTION 225
                                 5254   
00:0000                          5255   _Init_Ambient_Light_Sensor_7	:
                                 5256   CBLOCK 225 1 1668
                                 5257   
                                 5258   ;;{
                                 5259   CLINEA 0000H 0001H 0684H 0001H 0001H
00:0000 CE-F8                    5260   	push	lr
00:0002 5E-FE                    5261   	push	fp
00:0004 1A-AE                    5262   	mov	fp,	sp
00:0006 FE E1                    5263   	add	sp,	#-02
                                 5264   CBLOCK 225 2 1668
                                 5265   CRET 0004H
                                 5266   CLOCAL 42H 0001H 0001H 0002H "cTmp" 02H 00H 00H
                                 5267   
                                 5268   ;;	unsigned char cTmp = 0x0;
                                 5269   CLINEA 0000H 0001H 0685H 0002H 001AH
00:0008 00 00                    5270   	mov	r0,	#00h
00:000A FF D0                    5271   	st	r0,	-1[fp]
                                 5272   
                                 5273   ;;	I2C_Write(BH17xxFVC_ADDR_2, &BH1730FVC_REG_INTERRUPT, 1, &cTmp, 1);
                                 5274   CLINEA 0000H 0001H 0688H 0002H 0044H
00:000C 01 00                    5275   	mov	r0,	#01h
00:000E 4E-F0                    5276   	push	r0
00:0010 E5-F0                    5277   	mov	er0,	fp
00:0012 FF E0                    5278   	add	er0,	#-1
00:0014 5E-F0                    5279   	push	er0
00:0016 01 00                    5280   	mov	r0,	#01h
00:0018 4E-F0                    5281   	push	r0
00:001A 00'02                    5282   	mov	r2,	#BYTE1 OFFSET _BH1730FVC_REG_INTERRUPT
00:001C 00'03                    5283   	mov	r3,	#BYTE2 OFFSET _BH1730FVC_REG_INTERRUPT
00:001E 29 00                    5284   	mov	r0,	#029h
00:0020 01-F0'00-00'             5285   	bl	_I2C_Write
00:0024 06 E1                    5286   	add	sp,	#6 
                                 5287   
                                 5288   ;;	I2C_Write(BH17xxFVC_ADDR_2, &BH1730FVC_REG_GAIN, 1, &cTmp, 1);
                                 5289   CLINEA 0000H 0001H 068AH 0002H 003FH
00:0026 01 00                    5290   	mov	r0,	#01h
00:0028 4E-F0                    5291   	push	r0
00:002A E5-F0                    5292   	mov	er0,	fp
00:002C FF E0                    5293   	add	er0,	#-1
00:002E 5E-F0                    5294   	push	er0
00:0030 01 00                    5295   	mov	r0,	#01h
00:0032 4E-F0                    5296   	push	r0
00:0034 00'02                    5297   	mov	r2,	#BYTE1 OFFSET _BH1730FVC_REG_GAIN
00:0036 00'03                    5298   	mov	r3,	#BYTE2 OFFSET _BH1730FVC_REG_GAIN
00:0038 29 00                    5299   	mov	r0,	#029h
00:003A 01-F0'00-00'             5300   	bl	_I2C_Write
00:003E 06 E1                    5301   	add	sp,	#6 
                                 5302   
                                 5303   ;;	cTmp = 0xdau;
                                 5304   CLINEA 0000H 0001H 068CH 0002H 000EH
00:0040 DA 00                    5305   	mov	r0,	#0dah
00:0042 FF D0                    5306   	st	r0,	-1[fp]
                                 5307   
                                 5308   ;;	I2C_Write(BH17xxFVC_ADDR_2, &BH1730FVC_REG_TIMING, 1, &cTmp, 1);
                                 5309   CLINEA 0000H 0001H 068DH 0002H 0041H
00:0044 01 00                    5310   	mov	r0,	#01h
00:0046 4E-F0                    5311   	push	r0
00:0048 E5-F0                    5312   	mov	er0,	fp
00:004A FF E0                    5313   	add	er0,	#-1
00:004C 5E-F0                    5314   	push	er0
00:004E 01 00                    5315   	mov	r0,	#01h
00:0050 4E-F0                    5316   	push	r0
00:0052 00'02                    5317   	mov	r2,	#BYTE1 OFFSET _BH1730FVC_REG_TIMING
00:0054 00'03                    5318   	mov	r3,	#BYTE2 OFFSET _BH1730FVC_REG_TIMING
00:0056 29 00                    5319   	mov	r0,	#029h
00:0058 01-F0'00-00'             5320   	bl	_I2C_Write
00:005C 06 E1                    5321   	add	sp,	#6 
                                 5322   
                                 5323   ;;	cTmp = 0x3;
                                 5324   CLINEA 0000H 0001H 068FH 0002H 000CH
00:005E 03 00                    5325   	mov	r0,	#03h
00:0060 FF D0                    5326   	st	r0,	-1[fp]
                                 5327   
                                 5328   ;;	I2C_Write(BH17xxFVC_ADDR_2, &BH1730FVC_REG_CONTROL, 1, &cTmp, 1);
                                 5329   CLINEA 0000H 0001H 0690H 0002H 0042H
00:0062 01 00                    5330   	mov	r0,	#01h
00:0064 4E-F0                    5331   	push	r0
00:0066 E5-F0                    5332   	mov	er0,	fp
00:0068 FF E0                    5333   	add	er0,	#-1
00:006A 5E-F0                    5334   	push	er0
00:006C 01 00                    5335   	mov	r0,	#01h
00:006E 4E-F0                    5336   	push	r0
00:0070 00'02                    5337   	mov	r2,	#BYTE1 OFFSET _BH1730FVC_REG_CONTROL
00:0072 00'03                    5338   	mov	r3,	#BYTE2 OFFSET _BH1730FVC_REG_CONTROL
00:0074 29 00                    5339   	mov	r0,	#029h
00:0076 01-F0'00-00'             5340   	bl	_I2C_Write
00:007A 06 E1                    5341   	add	sp,	#6 
                                 5342   
                                 5343   ;;	I2C_Write(BH17xxFVC_ADDR_2, &BH1730FVC_REG_DATA0LOW, 1, NULL, 0);
                                 5344   CLINEA 0000H 0001H 0692H 0002H 0042H
00:007C 00 00                    5345   	mov	r0,	#00h
00:007E 4E-F0                    5346   	push	r0
00:0080 00 E0                    5347   	mov	er0,	#0 
00:0082 5E-F0                    5348   	push	er0
00:0084 01 00                    5349   	mov	r0,	#01h
00:0086 4E-F0                    5350   	push	r0
00:0088 00'02                    5351   	mov	r2,	#BYTE1 OFFSET _BH1730FVC_REG_DATA0LOW
00:008A 00'03                    5352   	mov	r3,	#BYTE2 OFFSET _BH1730FVC_REG_DATA0LOW
00:008C 29 00                    5353   	mov	r0,	#029h
00:008E 01-F0'00-00'             5354   	bl	_I2C_Write
00:0092 06 E1                    5355   	add	sp,	#6 
                                 5356   CBLOCKEND 225 2 1683
                                 5357   
                                 5358   ;;}
                                 5359   CLINEA 0000H 0001H 0693H 0001H 0001H
00:0094 EA-A1                    5360   	mov	sp,	fp
00:0096 1E-FE                    5361   	pop	fp
00:0098 8E-F2                    5362   	pop	pc
                                 5363   CBLOCKEND 225 1 1683
                                 5364   CFUNCTIONEND 225
                                 5365   
                                 5366   
  --------------------------     5367   	rseg $$Init_Ambient_Light_Sensor_8$main
                                 5368   CFUNCTION 226
                                 5369   
00:0000                          5370   _Init_Ambient_Light_Sensor_8	:
                                 5371   CBLOCK 226 1 1696
                                 5372   
                                 5373   ;;{	
                                 5374   CLINEA 0000H 0001H 06A0H 0001H 0002H
00:0000 CE-F8                    5375   	push	lr
                                 5376   CBLOCK 226 2 1696
                                 5377   CRET 0000H
                                 5378   
                                 5379   ;;	I2C_Write(BH17xxFVC_ADDR_1, NULL, 0, &BH17xxFVC_PWR_ON, 1);
                                 5380   CLINEA 0000H 0001H 06A2H 0002H 003CH
00:0002 01 00                    5381   	mov	r0,	#01h
00:0004 4E-F0                    5382   	push	r0
00:0006 00'00                    5383   	mov	r0,	#BYTE1 OFFSET _BH17xxFVC_PWR_ON
00:0008 00'01                    5384   	mov	r1,	#BYTE2 OFFSET _BH17xxFVC_PWR_ON
00:000A 5E-F0                    5385   	push	er0
00:000C 00 00                    5386   	mov	r0,	#00h
00:000E 4E-F0                    5387   	push	r0
00:0010 00 E2                    5388   	mov	er2,	#0 
00:0012 23 00                    5389   	mov	r0,	#023h
00:0014 01-F0'00-00'             5390   	bl	_I2C_Write
00:0018 06 E1                    5391   	add	sp,	#6 
                                 5392   
                                 5393   ;;	I2C_Write(BH17xxFVC_ADDR_1, NULL, 0, &BH1721FVC_CONT_A_RES_MOD, 1);
                                 5394   CLINEA 0000H 0001H 06A4H 0002H 0044H
00:001A 01 00                    5395   	mov	r0,	#01h
00:001C 4E-F0                    5396   	push	r0
00:001E 00'00                    5397   	mov	r0,	#BYTE1 OFFSET _BH1721FVC_CONT_A_RES_MOD
00:0020 00'01                    5398   	mov	r1,	#BYTE2 OFFSET _BH1721FVC_CONT_A_RES_MOD
00:0022 5E-F0                    5399   	push	er0
00:0024 00 00                    5400   	mov	r0,	#00h
00:0026 4E-F0                    5401   	push	r0
00:0028 00 E2                    5402   	mov	er2,	#0 
00:002A 23 00                    5403   	mov	r0,	#023h
00:002C 01-F0'00-00'             5404   	bl	_I2C_Write
00:0030 06 E1                    5405   	add	sp,	#6 
                                 5406   
                                 5407   ;;	NOPms(180);	
                                 5408   CLINEA 0000H 0001H 06A8H 0002H 000DH
00:0032 B4 00                    5409   	mov	r0,	#0b4h
00:0034 00 01                    5410   	mov	r1,	#00h
00:0036 01-F0'00-00'             5411   	bl	_NOPms
                                 5412   CBLOCKEND 226 2 1705
                                 5413   
                                 5414   ;;}
                                 5415   CLINEA 0000H 0001H 06A9H 0001H 0001H
00:003A 8E-F2                    5416   	pop	pc
                                 5417   CBLOCKEND 226 1 1705
                                 5418   CFUNCTIONEND 226
                                 5419   
                                 5420   
  --------------------------     5421   	rseg $$Init_Ambient_Light_Sensor_9$main
                                 5422   CFUNCTION 227
                                 5423   
00:0000                          5424   _Init_Ambient_Light_Sensor_9	:
                                 5425   CBLOCK 227 1 1718
                                 5426   
                                 5427   ;;{
                                 5428   CLINEA 0000H 0001H 06B6H 0001H 0001H
00:0000 CE-F8                    5429   	push	lr
                                 5430   CBLOCK 227 2 1718
                                 5431   CRET 0000H
                                 5432   
                                 5433   ;;	uniRawSensorOut._uchar = 0x3;
                                 5434   CLINEA 0000H 0001H 06B7H 0002H 001EH
00:0002 03 00                    5435   	mov	r0,	#03h
00:0004 11-90 00-00'             5436   	st	r0,	NEAR _uniRawSensorOut
                                 5437   
                                 5438   ;;	I2C_Write(BH17xxFVC_ADDR_2, &BH1780GLI_REG_CONTROL, 1, &uniRawSensorOut._uchar, 1);
                                 5439   CLINEA 0000H 0001H 06B9H 0002H 0054H
00:0008 01 00                    5440   	mov	r0,	#01h
00:000A 4E-F0                    5441   	push	r0
00:000C 00'00                    5442   	mov	r0,	#BYTE1 OFFSET _uniRawSensorOut
00:000E 00'01                    5443   	mov	r1,	#BYTE2 OFFSET _uniRawSensorOut
00:0010 5E-F0                    5444   	push	er0
00:0012 01 00                    5445   	mov	r0,	#01h
00:0014 4E-F0                    5446   	push	r0
00:0016 00'02                    5447   	mov	r2,	#BYTE1 OFFSET _BH1780GLI_REG_CONTROL
00:0018 00'03                    5448   	mov	r3,	#BYTE2 OFFSET _BH1780GLI_REG_CONTROL
00:001A 29 00                    5449   	mov	r0,	#029h
00:001C 01-F0'00-00'             5450   	bl	_I2C_Write
00:0020 06 E1                    5451   	add	sp,	#6 
                                 5452   
                                 5453   ;;	I2C_Write(BH17xxFVC_ADDR_2, &BH1780GLI_REG_DATALOW, 1, NULL, 0);
                                 5454   CLINEA 0000H 0001H 06BBH 0002H 0041H
00:0022 00 00                    5455   	mov	r0,	#00h
00:0024 4E-F0                    5456   	push	r0
00:0026 00 E0                    5457   	mov	er0,	#0 
00:0028 5E-F0                    5458   	push	er0
00:002A 01 00                    5459   	mov	r0,	#01h
00:002C 4E-F0                    5460   	push	r0
00:002E 00'02                    5461   	mov	r2,	#BYTE1 OFFSET _BH1780GLI_REG_DATALOW
00:0030 00'03                    5462   	mov	r3,	#BYTE2 OFFSET _BH1780GLI_REG_DATALOW
00:0032 29 00                    5463   	mov	r0,	#029h
00:0034 01-F0'00-00'             5464   	bl	_I2C_Write
00:0038 06 E1                    5465   	add	sp,	#6 
                                 5466   CBLOCKEND 227 2 1724
                                 5467   
                                 5468   ;;}
                                 5469   CLINEA 0000H 0001H 06BCH 0001H 0001H
00:003A 8E-F2                    5470   	pop	pc
                                 5471   CBLOCKEND 227 1 1724
                                 5472   CFUNCTIONEND 227
                                 5473   
                                 5474   
  --------------------------     5475   	rseg $$Init_UV_Sensor_10$main
                                 5476   CFUNCTION 228
                                 5477   
00:0000                          5478   _Init_UV_Sensor_10	:
                                 5479   CBLOCK 228 1 1737
                                 5480   
                                 5481   ;;{
                                 5482   CLINEA 0000H 0001H 06C9H 0001H 0001H
                                 5483   CBLOCK 228 2 1737
                                 5484   CBLOCKEND 228 2 1740
                                 5485   
                                 5486   ;;}
                                 5487   CLINEA 0000H 0001H 06CCH 0001H 0001H
00:0000 1F-FE                    5488   	rt
                                 5489   CBLOCKEND 228 1 1740
                                 5490   CFUNCTIONEND 228
                                 5491   
                                 5492   
  --------------------------     5493   	rseg $$Init_ALS_PROX_Sensor_11$main
                                 5494   CFUNCTION 229
                                 5495   
00:0000                          5496   _Init_ALS_PROX_Sensor_11	:
                                 5497   CBLOCK 229 1 1754
                                 5498   
                                 5499   ;;{
                                 5500   CLINEA 0000H 0001H 06DAH 0001H 0001H
00:0000 CE-F8                    5501   	push	lr
                                 5502   CBLOCK 229 2 1754
                                 5503   CRET 0000H
                                 5504   
                                 5505   ;;	I2C_Write(RPR0521_I2C_ADDR, &RPR0521_Prox_ModeCTR, 1, &RPR0521_Prox_ModeCTR_CFG, 1); 	        //0xC6: ALS=PS= enabled & 100ms 
                                 5506   CLINEA 0000H 0001H 06DBH 0002H 007FH
00:0002 01 00                    5507   	mov	r0,	#01h
00:0004 4E-F0                    5508   	push	r0
00:0006 00'00                    5509   	mov	r0,	#BYTE1 OFFSET _RPR0521_Prox_ModeCTR_CFG
00:0008 00'01                    5510   	mov	r1,	#BYTE2 OFFSET _RPR0521_Prox_ModeCTR_CFG
00:000A 5E-F0                    5511   	push	er0
00:000C 01 00                    5512   	mov	r0,	#01h
00:000E 4E-F0                    5513   	push	r0
00:0010 00'02                    5514   	mov	r2,	#BYTE1 OFFSET _RPR0521_Prox_ModeCTR
00:0012 00'03                    5515   	mov	r3,	#BYTE2 OFFSET _RPR0521_Prox_ModeCTR
00:0014 38 00                    5516   	mov	r0,	#038h
00:0016 01-F0'00-00'             5517   	bl	_I2C_Write
00:001A 06 E1                    5518   	add	sp,	#6 
                                 5519   
                                 5520   ;;	I2C_Write(RPR0521_I2C_ADDR, &RPR0521_PS_ModeCTR, 1, &RPR0521_PS_ModeCTR_CFG, 1); 	        //(0x01) defaults, PS GAIN 4	
                                 5521   CLINEA 0000H 0001H 06DCH 0002H 007AH
00:001C 01 00                    5522   	mov	r0,	#01h
00:001E 4E-F0                    5523   	push	r0
00:0020 00'00                    5524   	mov	r0,	#BYTE1 OFFSET _RPR0521_PS_ModeCTR_CFG
00:0022 00'01                    5525   	mov	r1,	#BYTE2 OFFSET _RPR0521_PS_ModeCTR_CFG
00:0024 5E-F0                    5526   	push	er0
00:0026 01 00                    5527   	mov	r0,	#01h
00:0028 4E-F0                    5528   	push	r0
00:002A 00'02                    5529   	mov	r2,	#BYTE1 OFFSET _RPR0521_PS_ModeCTR
00:002C 00'03                    5530   	mov	r3,	#BYTE2 OFFSET _RPR0521_PS_ModeCTR
00:002E 38 00                    5531   	mov	r0,	#038h
00:0030 01-F0'00-00'             5532   	bl	_I2C_Write
00:0034 06 E1                    5533   	add	sp,	#6 
                                 5534   CBLOCKEND 229 2 1757
                                 5535   
                                 5536   ;;}
                                 5537   CLINEA 0000H 0001H 06DDH 0001H 0001H
00:0036 8E-F2                    5538   	pop	pc
                                 5539   CBLOCKEND 229 1 1757
                                 5540   CFUNCTIONEND 229
                                 5541   
                                 5542   
  --------------------------     5543   	rseg $$Init_KXG03_Sensor_12$main
                                 5544   CFUNCTION 230
                                 5545   
00:0000                          5546   _Init_KXG03_Sensor_12	:
                                 5547   CBLOCK 230 1 1771
                                 5548   
                                 5549   ;;{
                                 5550   CLINEA 0000H 0001H 06EBH 0001H 0001H
00:0000 CE-F8                    5551   	push	lr
                                 5552   CBLOCK 230 2 1771
                                 5553   CRET 0000H
                                 5554   
                                 5555   ;;	I2C_Write(KXG03_I2C_ADDR, &KXG03_STBY_REG, 1, &KXG03_STBY_SET, 1);
                                 5556   CLINEA 0000H 0001H 06ECH 0002H 0043H
00:0002 01 00                    5557   	mov	r0,	#01h
00:0004 4E-F0                    5558   	push	r0
00:0006 00'00                    5559   	mov	r0,	#BYTE1 OFFSET _KXG03_STBY_SET
00:0008 00'01                    5560   	mov	r1,	#BYTE2 OFFSET _KXG03_STBY_SET
00:000A 5E-F0                    5561   	push	er0
00:000C 01 00                    5562   	mov	r0,	#01h
00:000E 4E-F0                    5563   	push	r0
00:0010 00'02                    5564   	mov	r2,	#BYTE1 OFFSET _KXG03_STBY_REG
00:0012 00'03                    5565   	mov	r3,	#BYTE2 OFFSET _KXG03_STBY_REG
00:0014 4E 00                    5566   	mov	r0,	#04eh
00:0016 01-F0'00-00'             5567   	bl	_I2C_Write
00:001A 06 E1                    5568   	add	sp,	#6 
                                 5569   
                                 5570   ;;	I2C_Write(KX022_I2C_ADDR, &KXG03_CTRL_REG1, 1, &KXG03_CTRL_REG1_CFDAT, 1);
                                 5571   CLINEA 0000H 0001H 06EDH 0002H 004BH
00:001C 01 00                    5572   	mov	r0,	#01h
00:001E 4E-F0                    5573   	push	r0
00:0020 00'00                    5574   	mov	r0,	#BYTE1 OFFSET _KXG03_CTRL_REG1_CFDAT
00:0022 00'01                    5575   	mov	r1,	#BYTE2 OFFSET _KXG03_CTRL_REG1_CFDAT
00:0024 5E-F0                    5576   	push	er0
00:0026 01 00                    5577   	mov	r0,	#01h
00:0028 4E-F0                    5578   	push	r0
00:002A 00'02                    5579   	mov	r2,	#BYTE1 OFFSET _KXG03_CTRL_REG1
00:002C 00'03                    5580   	mov	r3,	#BYTE2 OFFSET _KXG03_CTRL_REG1
00:002E 1E 00                    5581   	mov	r0,	#01eh
00:0030 01-F0'00-00'             5582   	bl	_I2C_Write
00:0034 06 E1                    5583   	add	sp,	#6 
                                 5584   
                                 5585   ;;	I2C_Write(KX022_I2C_ADDR, &KXG03_CTRL_REG2, 1, &KXG03_CTRL_REG2_CFDAT, 1);
                                 5586   CLINEA 0000H 0001H 06EEH 0002H 004BH
00:0036 01 00                    5587   	mov	r0,	#01h
00:0038 4E-F0                    5588   	push	r0
00:003A 00'00                    5589   	mov	r0,	#BYTE1 OFFSET _KXG03_CTRL_REG2_CFDAT
00:003C 00'01                    5590   	mov	r1,	#BYTE2 OFFSET _KXG03_CTRL_REG2_CFDAT
00:003E 5E-F0                    5591   	push	er0
00:0040 01 00                    5592   	mov	r0,	#01h
00:0042 4E-F0                    5593   	push	r0
00:0044 00'02                    5594   	mov	r2,	#BYTE1 OFFSET _KXG03_CTRL_REG2
00:0046 00'03                    5595   	mov	r3,	#BYTE2 OFFSET _KXG03_CTRL_REG2
00:0048 1E 00                    5596   	mov	r0,	#01eh
00:004A 01-F0'00-00'             5597   	bl	_I2C_Write
00:004E 06 E1                    5598   	add	sp,	#6 
                                 5599   
                                 5600   ;;	I2C_Write(KX022_I2C_ADDR, &KXG03_ODCTRL, 1, &KXG03_ODCTRL_CFDAT, 1);
                                 5601   CLINEA 0000H 0001H 06EFH 0002H 0045H
00:0050 01 00                    5602   	mov	r0,	#01h
00:0052 4E-F0                    5603   	push	r0
00:0054 00'00                    5604   	mov	r0,	#BYTE1 OFFSET _KXG03_ODCTRL_CFDAT
00:0056 00'01                    5605   	mov	r1,	#BYTE2 OFFSET _KXG03_ODCTRL_CFDAT
00:0058 5E-F0                    5606   	push	er0
00:005A 01 00                    5607   	mov	r0,	#01h
00:005C 4E-F0                    5608   	push	r0
00:005E 00'02                    5609   	mov	r2,	#BYTE1 OFFSET _KXG03_ODCTRL
00:0060 00'03                    5610   	mov	r3,	#BYTE2 OFFSET _KXG03_ODCTRL
00:0062 1E 00                    5611   	mov	r0,	#01eh
00:0064 01-F0'00-00'             5612   	bl	_I2C_Write
00:0068 06 E1                    5613   	add	sp,	#6 
                                 5614   
                                 5615   ;;	uniRawSensorOut._uchar = (unsigned char)(KXG03_STBY_SET&0xfc);
                                 5616   CLINEA 0000H 0001H 06F2H 0002H 003FH
00:006A 7C 00                    5617   	mov	r0,	#07ch
00:006C 11-90 00-00'             5618   	st	r0,	NEAR _uniRawSensorOut
                                 5619   
                                 5620   ;;	I2C_Write(KX022_I2C_ADDR, &KX022_CNTL1, 1, &uniRawSensorOut._uchar, 1);
                                 5621   CLINEA 0000H 0001H 06F3H 0002H 0048H
00:0070 01 00                    5622   	mov	r0,	#01h
00:0072 4E-F0                    5623   	push	r0
00:0074 00'00                    5624   	mov	r0,	#BYTE1 OFFSET _uniRawSensorOut
00:0076 00'01                    5625   	mov	r1,	#BYTE2 OFFSET _uniRawSensorOut
00:0078 5E-F0                    5626   	push	er0
00:007A 01 00                    5627   	mov	r0,	#01h
00:007C 4E-F0                    5628   	push	r0
00:007E 00'02                    5629   	mov	r2,	#BYTE1 OFFSET _KX022_CNTL1
00:0080 00'03                    5630   	mov	r3,	#BYTE2 OFFSET _KX022_CNTL1
00:0082 1E 00                    5631   	mov	r0,	#01eh
00:0084 01-F0'00-00'             5632   	bl	_I2C_Write
00:0088 06 E1                    5633   	add	sp,	#6 
                                 5634   CBLOCKEND 230 2 1782
                                 5635   
                                 5636   ;;}
                                 5637   CLINEA 0000H 0001H 06F6H 0001H 0001H
00:008A 8E-F2                    5638   	pop	pc
                                 5639   CBLOCKEND 230 1 1782
                                 5640   CFUNCTIONEND 230
                                 5641   
                                 5642   
  --------------------------     5643   	rseg $$Init_KX022$main
                                 5644   CFUNCTION 231
                                 5645   
00:0000                          5646   _Init_KX022	:
                                 5647   CBLOCK 231 1 1795
                                 5648   
                                 5649   ;;{
                                 5650   CLINEA 0000H 0001H 0703H 0001H 0001H
00:0000 CE-F8                    5651   	push	lr
                                 5652   CBLOCK 231 2 1795
                                 5653   CRET 0000H
                                 5654   
                                 5655   ;;	I2C_Write(KX022_I2C_ADDR, &KX022_CNTL1, 1, &KX022_CNTL1_CFGDAT, 1);
                                 5656   CLINEA 0000H 0001H 0704H 0002H 0044H
00:0002 01 00                    5657   	mov	r0,	#01h
00:0004 4E-F0                    5658   	push	r0
00:0006 00'00                    5659   	mov	r0,	#BYTE1 OFFSET _KX022_CNTL1_CFGDAT
00:0008 00'01                    5660   	mov	r1,	#BYTE2 OFFSET _KX022_CNTL1_CFGDAT
00:000A 5E-F0                    5661   	push	er0
00:000C 01 00                    5662   	mov	r0,	#01h
00:000E 4E-F0                    5663   	push	r0
00:0010 00'02                    5664   	mov	r2,	#BYTE1 OFFSET _KX022_CNTL1
00:0012 00'03                    5665   	mov	r3,	#BYTE2 OFFSET _KX022_CNTL1
00:0014 1E 00                    5666   	mov	r0,	#01eh
00:0016 01-F0'00-00'             5667   	bl	_I2C_Write
00:001A 06 E1                    5668   	add	sp,	#6 
                                 5669   
                                 5670   ;;	I2C_Write(KX022_I2C_ADDR, &KX022_ODCNTL, 1, &KX022_ODCNTL_CFGDAT, 1);
                                 5671   CLINEA 0000H 0001H 0705H 0002H 0046H
00:001C 01 00                    5672   	mov	r0,	#01h
00:001E 4E-F0                    5673   	push	r0
00:0020 00'00                    5674   	mov	r0,	#BYTE1 OFFSET _KX022_ODCNTL_CFGDAT
00:0022 00'01                    5675   	mov	r1,	#BYTE2 OFFSET _KX022_ODCNTL_CFGDAT
00:0024 5E-F0                    5676   	push	er0
00:0026 01 00                    5677   	mov	r0,	#01h
00:0028 4E-F0                    5678   	push	r0
00:002A 00'02                    5679   	mov	r2,	#BYTE1 OFFSET _KX022_ODCNTL
00:002C 00'03                    5680   	mov	r3,	#BYTE2 OFFSET _KX022_ODCNTL
00:002E 1E 00                    5681   	mov	r0,	#01eh
00:0030 01-F0'00-00'             5682   	bl	_I2C_Write
00:0034 06 E1                    5683   	add	sp,	#6 
                                 5684   
                                 5685   ;;	I2C_Write(KX022_I2C_ADDR, &KX022_CNTL3, 1, &KX022_CNTL3_CFGDAT, 1);
                                 5686   CLINEA 0000H 0001H 0706H 0002H 0044H
00:0036 01 00                    5687   	mov	r0,	#01h
00:0038 4E-F0                    5688   	push	r0
00:003A 00'00                    5689   	mov	r0,	#BYTE1 OFFSET _KX022_CNTL3_CFGDAT
00:003C 00'01                    5690   	mov	r1,	#BYTE2 OFFSET _KX022_CNTL3_CFGDAT
00:003E 5E-F0                    5691   	push	er0
00:0040 01 00                    5692   	mov	r0,	#01h
00:0042 4E-F0                    5693   	push	r0
00:0044 00'02                    5694   	mov	r2,	#BYTE1 OFFSET _KX022_CNTL3
00:0046 00'03                    5695   	mov	r3,	#BYTE2 OFFSET _KX022_CNTL3
00:0048 1E 00                    5696   	mov	r0,	#01eh
00:004A 01-F0'00-00'             5697   	bl	_I2C_Write
00:004E 06 E1                    5698   	add	sp,	#6 
                                 5699   
                                 5700   ;;	I2C_Write(KX022_I2C_ADDR, &KX022_TILT_TIMER, 1, &KX022_TILT_TIMER_CFGDAT, 1);
                                 5701   CLINEA 0000H 0001H 0707H 0002H 004EH
00:0050 01 00                    5702   	mov	r0,	#01h
00:0052 4E-F0                    5703   	push	r0
00:0054 00'00                    5704   	mov	r0,	#BYTE1 OFFSET _KX022_TILT_TIMER_CFGDAT
00:0056 00'01                    5705   	mov	r1,	#BYTE2 OFFSET _KX022_TILT_TIMER_CFGDAT
00:0058 5E-F0                    5706   	push	er0
00:005A 01 00                    5707   	mov	r0,	#01h
00:005C 4E-F0                    5708   	push	r0
00:005E 00'02                    5709   	mov	r2,	#BYTE1 OFFSET _KX022_TILT_TIMER
00:0060 00'03                    5710   	mov	r3,	#BYTE2 OFFSET _KX022_TILT_TIMER
00:0062 1E 00                    5711   	mov	r0,	#01eh
00:0064 01-F0'00-00'             5712   	bl	_I2C_Write
00:0068 06 E1                    5713   	add	sp,	#6 
                                 5714   
                                 5715   ;;	uniRawSensorOut._uchar = (unsigned char)(KX022_CNTL1_CFGDAT|0x80);
                                 5716   CLINEA 0000H 0001H 0709H 0002H 0043H
00:006A C1 00                    5717   	mov	r0,	#0c1h
00:006C 11-90 00-00'             5718   	st	r0,	NEAR _uniRawSensorOut
                                 5719   
                                 5720   ;;	I2C_Write(KX022_I2C_ADDR, &KX022_CNTL1, 1, &uniRawSensorOut._uchar, 1);
                                 5721   CLINEA 0000H 0001H 070AH 0002H 0048H
00:0070 01 00                    5722   	mov	r0,	#01h
00:0072 4E-F0                    5723   	push	r0
00:0074 00'00                    5724   	mov	r0,	#BYTE1 OFFSET _uniRawSensorOut
00:0076 00'01                    5725   	mov	r1,	#BYTE2 OFFSET _uniRawSensorOut
00:0078 5E-F0                    5726   	push	er0
00:007A 01 00                    5727   	mov	r0,	#01h
00:007C 4E-F0                    5728   	push	r0
00:007E 00'02                    5729   	mov	r2,	#BYTE1 OFFSET _KX022_CNTL1
00:0080 00'03                    5730   	mov	r3,	#BYTE2 OFFSET _KX022_CNTL1
00:0082 1E 00                    5731   	mov	r0,	#01eh
00:0084 01-F0'00-00'             5732   	bl	_I2C_Write
00:0088 06 E1                    5733   	add	sp,	#6 
                                 5734   CBLOCKEND 231 2 1803
                                 5735   
                                 5736   ;;}
                                 5737   CLINEA 0000H 0001H 070BH 0001H 0001H
00:008A 8E-F2                    5738   	pop	pc
                                 5739   CBLOCKEND 231 1 1803
                                 5740   CFUNCTIONEND 231
                                 5741   
                                 5742   
  --------------------------     5743   	rseg $$Init_KMX61$main
                                 5744   CFUNCTION 232
                                 5745   
00:0000                          5746   _Init_KMX61	:
                                 5747   CBLOCK 232 1 1816
                                 5748   
                                 5749   ;;{ 
                                 5750   CLINEA 0000H 0001H 0718H 0001H 0002H
00:0000 CE-F8                    5751   	push	lr
                                 5752   CBLOCK 232 2 1816
                                 5753   CRET 0000H
                                 5754   
                                 5755   ;;	I2C_Write(KMX61_I2C_ADDR, &KMX62_CNTL2, 1, &KMX62_CNTL2_CFG, 1);
                                 5756   CLINEA 0000H 0001H 071AH 0002H 0041H
00:0002 01 00                    5757   	mov	r0,	#01h
00:0004 4E-F0                    5758   	push	r0
00:0006 00'00                    5759   	mov	r0,	#BYTE1 OFFSET _KMX62_CNTL2_CFG
00:0008 00'01                    5760   	mov	r1,	#BYTE2 OFFSET _KMX62_CNTL2_CFG
00:000A 5E-F0                    5761   	push	er0
00:000C 01 00                    5762   	mov	r0,	#01h
00:000E 4E-F0                    5763   	push	r0
00:0010 00'02                    5764   	mov	r2,	#BYTE1 OFFSET _KMX62_CNTL2
00:0012 00'03                    5765   	mov	r3,	#BYTE2 OFFSET _KMX62_CNTL2
00:0014 0E 00                    5766   	mov	r0,	#0eh
00:0016 01-F0'00-00'             5767   	bl	_I2C_Write
00:001A 06 E1                    5768   	add	sp,	#6 
                                 5769   CBLOCKEND 232 2 1835
                                 5770   
                                 5771   ;;}
                                 5772   CLINEA 0000H 0001H 072BH 0001H 0001H
00:001C 8E-F2                    5773   	pop	pc
                                 5774   CBLOCKEND 232 1 1835
                                 5775   CFUNCTIONEND 232
                                 5776   
                                 5777   
  --------------------------     5778   	rseg $$Init_Temperature_Sensor_20$main
                                 5779   CFUNCTION 233
                                 5780   
00:0000                          5781   _Init_Temperature_Sensor_20	:
                                 5782   CBLOCK 233 1 1848
                                 5783   
                                 5784   ;;{
                                 5785   CLINEA 0000H 0001H 0738H 0001H 0001H
                                 5786   CBLOCK 233 2 1848
                                 5787   CBLOCKEND 233 2 1851
                                 5788   
                                 5789   ;;}
                                 5790   CLINEA 0000H 0001H 073BH 0001H 0001H
00:0000 1F-FE                    5791   	rt
                                 5792   CBLOCKEND 233 1 1851
                                 5793   CFUNCTIONEND 233
                                 5794   
                                 5795   
  --------------------------     5796   	rseg $$Init_Temperature_Sensor_21$main
                                 5797   CFUNCTION 234
                                 5798   
00:0000                          5799   _Init_Temperature_Sensor_21	:
                                 5800   CBLOCK 234 1 1863
                                 5801   
                                 5802   ;;{
                                 5803   CLINEA 0000H 0001H 0747H 0001H 0001H
                                 5804   CBLOCK 234 2 1863
                                 5805   
                                 5806   ;;	SENINTF_HDR1_GPIO0(DIR) = 1;
                                 5807   CLINEA 0000H 0001H 0749H 0002H 001DH
00:0000 A0-A0 59-F2              5808   	sb	0f259h.2
                                 5809   
                                 5810   ;;	SENINTF_HDR1_GPIO0(C0) = 0;
                                 5811   CLINEA 0000H 0001H 074BH 0002H 001CH
00:0004 A2-A0 5A-F2              5812   	rb	0f25ah.2
                                 5813   
                                 5814   ;;	SENINTF_HDR1_GPIO0(C1) = 1;
                                 5815   CLINEA 0000H 0001H 074CH 0002H 001CH
00:0008 A0-A0 5B-F2              5816   	sb	0f25bh.2
                                 5817   
                                 5818   ;;	SENINTF_HDR1_GPIO0(MD0) = 0;
                                 5819   CLINEA 0000H 0001H 074EH 0002H 001DH
00:000C A2-A0 5C-F2              5820   	rb	0f25ch.2
                                 5821   
                                 5822   ;;	SENINTF_HDR1_GPIO0(MD1) = 0;
                                 5823   CLINEA 0000H 0001H 074FH 0002H 001DH
00:0010 A2-A0 5D-F2              5824   	rb	0f25dh.2
                                 5825   CBLOCKEND 234 2 1872
                                 5826   
                                 5827   ;;}
                                 5828   CLINEA 0000H 0001H 0750H 0001H 0001H
00:0014 1F-FE                    5829   	rt
                                 5830   CBLOCKEND 234 1 1872
                                 5831   CFUNCTIONEND 234
                                 5832   
                                 5833   
  --------------------------     5834   	rseg $$Init_Temperature_Sensor_22$main
                                 5835   CFUNCTION 235
                                 5836   
00:0000                          5837   _Init_Temperature_Sensor_22	:
                                 5838   CBLOCK 235 1 1885
                                 5839   
                                 5840   ;;{
                                 5841   CLINEA 0000H 0001H 075DH 0001H 0001H
                                 5842   CBLOCK 235 2 1885
                                 5843   
                                 5844   ;;	SENINTF_HDR1_GPIO0(DIR) = 1;
                                 5845   CLINEA 0000H 0001H 075FH 0002H 001DH
00:0000 A0-A0 59-F2              5846   	sb	0f259h.2
                                 5847   
                                 5848   ;;	SENINTF_HDR1_GPIO0(C0) = 0;
                                 5849   CLINEA 0000H 0001H 0761H 0002H 001CH
00:0004 A2-A0 5A-F2              5850   	rb	0f25ah.2
                                 5851   
                                 5852   ;;	SENINTF_HDR1_GPIO0(C1) = 1;
                                 5853   CLINEA 0000H 0001H 0762H 0002H 001CH
00:0008 A0-A0 5B-F2              5854   	sb	0f25bh.2
                                 5855   
                                 5856   ;;	SENINTF_HDR1_GPIO0(MD0) = 0;
                                 5857   CLINEA 0000H 0001H 0764H 0002H 001DH
00:000C A2-A0 5C-F2              5858   	rb	0f25ch.2
                                 5859   
                                 5860   ;;	SENINTF_HDR1_GPIO0(MD1) = 0;
                                 5861   CLINEA 0000H 0001H 0765H 0002H 001DH
00:0010 A2-A0 5D-F2              5862   	rb	0f25dh.2
                                 5863   CBLOCKEND 235 2 1894
                                 5864   
                                 5865   ;;}
                                 5866   CLINEA 0000H 0001H 0766H 0001H 0001H
00:0014 1F-FE                    5867   	rt
                                 5868   CBLOCKEND 235 1 1894
                                 5869   CFUNCTIONEND 235
                                 5870   
                                 5871   
  --------------------------     5872   	rseg $$Init_Temperature_Sensor_23$main
                                 5873   CFUNCTION 236
                                 5874   
00:0000                          5875   _Init_Temperature_Sensor_23	:
                                 5876   CBLOCK 236 1 1907
                                 5877   
                                 5878   ;;{
                                 5879   CLINEA 0000H 0001H 0773H 0001H 0001H
                                 5880   CBLOCK 236 2 1907
                                 5881   
                                 5882   ;;	SENINTF_HDR1_GPIO0(DIR) = 1;
                                 5883   CLINEA 0000H 0001H 0775H 0002H 001DH
00:0000 A0-A0 59-F2              5884   	sb	0f259h.2
                                 5885   
                                 5886   ;;	SENINTF_HDR1_GPIO0(C0) = 0;
                                 5887   CLINEA 0000H 0001H 0777H 0002H 001CH
00:0004 A2-A0 5A-F2              5888   	rb	0f25ah.2
                                 5889   
                                 5890   ;;	SENINTF_HDR1_GPIO0(C1) = 1;
                                 5891   CLINEA 0000H 0001H 0778H 0002H 001CH
00:0008 A0-A0 5B-F2              5892   	sb	0f25bh.2
                                 5893   
                                 5894   ;;	SENINTF_HDR1_GPIO0(MD0) = 0;
                                 5895   CLINEA 0000H 0001H 077AH 0002H 001DH
00:000C A2-A0 5C-F2              5896   	rb	0f25ch.2
                                 5897   
                                 5898   ;;	SENINTF_HDR1_GPIO0(MD1) = 0;
                                 5899   CLINEA 0000H 0001H 077BH 0002H 001DH
00:0010 A2-A0 5D-F2              5900   	rb	0f25dh.2
                                 5901   CBLOCKEND 236 2 1916
                                 5902   
                                 5903   ;;}
                                 5904   CLINEA 0000H 0001H 077CH 0001H 0001H
00:0014 1F-FE                    5905   	rt
                                 5906   CBLOCKEND 236 1 1916
                                 5907   CFUNCTIONEND 236
                                 5908   
                                 5909   
  --------------------------     5910   	rseg $$main_clrWDT$main
                                 5911   CFUNCTION 179
                                 5912   
00:0000                          5913   _main_clrWDT	:
                                 5914   CBLOCK 179 1 1927
                                 5915   
                                 5916   ;;{
                                 5917   CLINEA 0000H 0001H 0787H 0001H 0001H
                                 5918   CBLOCK 179 2 1927
                                 5919   
                                 5920   ;;	do {
                                 5921   CLINEA 0000H 0001H 078AH 0002H 0005H
00:0000                          5922   _$L310 :
                                 5923   CBLOCK 179 3 1930
                                 5924   
                                 5925   ;;		WDTCON = 0x5Au;
                                 5926   CLINEA 0000H 0001H 078BH 0003H 0011H
00:0000 5A 00                    5927   	mov	r0,	#05ah
00:0002 11-90 0E-F0              5928   	st	r0,	0f00eh
                                 5929   CBLOCKEND 179 3 1932
                                 5930   
                                 5931   ;;	} while (WDP != 1);
                                 5932   CLINEA 0000H 0000H 078CH 0002H 0014H
00:0006 81-A0 0E-F0              5933   	tb	0f00eh.0
00:000A FA C9                    5934   	beq	_$L310
                                 5935   
                                 5936   ;;	WDTCON = 0xA5u;
                                 5937   CLINEA 0000H 0001H 078DH 0002H 0010H
00:000C A5 00                    5938   	mov	r0,	#0a5h
00:000E 11-90 0E-F0              5939   	st	r0,	0f00eh
                                 5940   CBLOCKEND 179 2 1934
                                 5941   
                                 5942   ;;}
                                 5943   CLINEA 0000H 0001H 078EH 0001H 0001H
00:0012 1F-FE                    5944   	rt
                                 5945   CBLOCKEND 179 1 1934
                                 5946   CFUNCTIONEND 179
                                 5947   
                                 5948   
  --------------------------     5949   	rseg $$_funcUartFin$main
                                 5950   CFUNCTION 190
                                 5951   
00:0000                          5952   __funcUartFin	:
                                 5953   CBLOCK 190 1 1945
                                 5954   
                                 5955   ;;{
                                 5956   CLINEA 0000H 0001H 0799H 0001H 0001H
00:0000 CE-F8                    5957   	push	lr
                                 5958   CBLOCK 190 2 1945
                                 5959   CRET 0000H
                                 5960   CARGUMENT 46H 0002H 0000H "size" 02H 00H 01H
                                 5961   CARGUMENT 46H 0001H 0000H "errStat" 02H 00H 00H
                                 5962   
                                 5963   ;;	uart_continue();					// Function in UART.c: process to continue send and receive...
                                 5964   CLINEA 0000H 0001H 079AH 0002H 0054H
00:0002 01-F0'00-00'             5965   	bl	_uart_continue
                                 5966   
                                 5967   ;;	_flgUartFin = (unsigned char)FLG_SET;
                                 5968   CLINEA 0000H 0001H 079BH 0002H 0026H
00:0006 01 00                    5969   	mov	r0,	#01h
00:0008 11-90 00-00'             5970   	st	r0,	NEAR __flgUartFin
                                 5971   
                                 5972   ;;	main_reqNotHalt();				// uncommented 5/2/2013
                                 5973   CLINEA 0000H 0001H 079CH 0002H 002EH
00:000C 01-F0'00-00'             5974   	bl	_main_reqNotHalt
                                 5975   CBLOCKEND 190 2 1949
                                 5976   
                                 5977   ;;}
                                 5978   CLINEA 0000H 0001H 079DH 0001H 0001H
00:0010 8E-F2                    5979   	pop	pc
                                 5980   CBLOCKEND 190 1 1949
                                 5981   CFUNCTIONEND 190
                                 5982   
                                 5983   
  --------------------------     5984   	rseg $$_funcI2CFin$main
                                 5985   CFUNCTION 191
                                 5986   
00:0000                          5987   __funcI2CFin	:
                                 5988   CBLOCK 191 1 1960
                                 5989   
                                 5990   ;;{
                                 5991   CLINEA 0000H 0001H 07A8H 0001H 0001H
00:0000 CE-F8                    5992   	push	lr
                                 5993   CBLOCK 191 2 1960
                                 5994   CRET 0000H
                                 5995   CARGUMENT 46H 0002H 0000H "size" 02H 00H 01H
                                 5996   CARGUMENT 46H 0001H 0000H "errStat" 02H 00H 00H
                                 5997   
                                 5998   ;;	i2c_continue();					// Function in UART.c: process to continue send and receive...
                                 5999   CLINEA 0000H 0001H 07A9H 0002H 0053H
00:0002 01-F0'00-00'             6000   	bl	_i2c_continue
                                 6001   
                                 6002   ;;	_flgI2CFin = (unsigned char)FLG_SET;
                                 6003   CLINEA 0000H 0001H 07AAH 0002H 0025H
00:0006 01 00                    6004   	mov	r0,	#01h
00:0008 11-90 00-00'             6005   	st	r0,	NEAR __flgI2CFin
                                 6006   
                                 6007   ;;	main_reqNotHalt();				// uncommented 5/2/2013
                                 6008   CLINEA 0000H 0001H 07ABH 0002H 002EH
00:000C 01-F0'00-00'             6009   	bl	_main_reqNotHalt
                                 6010   CBLOCKEND 191 2 1964
                                 6011   
                                 6012   ;;}
                                 6013   CLINEA 0000H 0001H 07ACH 0001H 0001H
00:0010 8E-F2                    6014   	pop	pc
                                 6015   CBLOCKEND 191 1 1964
                                 6016   CFUNCTIONEND 191
                                 6017   
                                 6018   
  --------------------------     6019   	rseg $$_intI2c$main
                                 6020   CFUNCTION 194
                                 6021   
00:0000                          6022   __intI2c	:
                                 6023   CBLOCK 194 1 1974
                                 6024   
                                 6025   ;;{
                                 6026   CLINEA 0000H 0001H 07B6H 0001H 0001H
00:0000 CE-F8                    6027   	push	lr
                                 6028   CBLOCK 194 2 1974
                                 6029   CRET 0000H
                                 6030   
                                 6031   ;;	i2c_continue();
                                 6032   CLINEA 0000H 0001H 07B7H 0002H 0010H
00:0002 01-F0'00-00'             6033   	bl	_i2c_continue
                                 6034   
                                 6035   ;;	main_reqNotHalt();
                                 6036   CLINEA 0000H 0001H 07B8H 0002H 0013H
00:0006 01-F0'00-00'             6037   	bl	_main_reqNotHalt
                                 6038   CBLOCKEND 194 2 1977
                                 6039   
                                 6040   ;;}
                                 6041   CLINEA 0000H 0001H 07B9H 0001H 0001H
00:000A 8E-F2                    6042   	pop	pc
                                 6043   CBLOCKEND 194 1 1977
                                 6044   CFUNCTIONEND 194
                                 6045   
                                 6046   
  --------------------------     6047   	rseg $$_intADC$main
                                 6048   CFUNCTION 195
                                 6049   
00:0000                          6050   __intADC	:
                                 6051   CBLOCK 195 1 1987
                                 6052   
                                 6053   ;;{
                                 6054   CLINEA 0000H 0001H 07C3H 0001H 0001H
                                 6055   CBLOCK 195 2 1987
                                 6056   
                                 6057   ;;	_flgADCFin = 1;
                                 6058   CLINEA 0000H 0001H 07C4H 0002H 0010H
00:0000 01 00                    6059   	mov	r0,	#01h
00:0002 11-90 00-00'             6060   	st	r0,	NEAR __flgADCFin
                                 6061   CBLOCKEND 195 2 1989
                                 6062   
                                 6063   ;;}
                                 6064   CLINEA 0000H 0001H 07C5H 0001H 0001H
00:0006 1F-FE                    6065   	rt
                                 6066   CBLOCKEND 195 1 1989
                                 6067   CFUNCTIONEND 195
                                 6068   
                                 6069   
  --------------------------     6070   	rseg $$main_reqNotHalt$main
                                 6071   CFUNCTION 192
                                 6072   
00:0000                          6073   _main_reqNotHalt	:
                                 6074   CBLOCK 192 1 1999
                                 6075   
                                 6076   ;;{
                                 6077   CLINEA 0000H 0001H 07CFH 0001H 0001H
                                 6078   CBLOCK 192 2 1999
                                 6079   
                                 6080   ;;	_reqNotHalt = (unsigned char)FLG_SET;
                                 6081   CLINEA 0000H 0001H 07D0H 0002H 0026H
00:0000 01 00                    6082   	mov	r0,	#01h
00:0002 11-90 00-00'             6083   	st	r0,	NEAR __reqNotHalt
                                 6084   CBLOCKEND 192 2 2001
                                 6085   
                                 6086   ;;}
                                 6087   CLINEA 0000H 0001H 07D1H 0001H 0001H
00:0006 1F-FE                    6088   	rt
                                 6089   CBLOCKEND 192 1 2001
                                 6090   CFUNCTIONEND 192
                                 6091   
                                 6092   
  --------------------------     6093   	rseg $$_intUart$main
                                 6094   CFUNCTION 193
                                 6095   
00:0000                          6096   __intUart	:
                                 6097   CBLOCK 193 1 2011
                                 6098   
                                 6099   ;;{
                                 6100   CLINEA 0000H 0001H 07DBH 0001H 0001H
                                 6101   CBLOCK 193 2 2011
                                 6102   
                                 6103   ;;	uart_continue(); 	//in UART.c: process to continue send and receive...
                                 6104   CLINEA 0000H 0001H 07DCH 0002H 0047H
00:0000 00-F0'00-00'             6105   	b	_uart_continue
                                 6106   CBLOCKEND 193 2 2013
                                 6107   CLINEA 0000H 0001H 07DDH 0001H 0001H
                                 6108   CBLOCKEND 193 1 2013
                                 6109   CFUNCTIONEND 193
                                 6110   
                                 6111   
  --------------------------     6112   	rseg $$SetOSC$main
                                 6113   CFUNCTION 181
                                 6114   
00:0000                          6115   _SetOSC	:
                                 6116   CBLOCK 181 1 2018
                                 6117   
                                 6118   ;;static void SetOSC(void){
                                 6119   CLINEA 0000H 0001H 07E2H 0001H 0019H
                                 6120   CBLOCK 181 2 2018
                                 6121   
                                 6122   ;;	SYSC0 = 0;			// Used to select the frequency of the HSCLK => 00=8.192MHz.
                                 6123   CLINEA 0000H 0001H 07E5H 0002H 004AH
00:0000 82-A0 02-F0              6124   	rb	0f002h.0
                                 6125   
                                 6126   ;;	SYSC1 = 0;
                                 6127   CLINEA 0000H 0001H 07E6H 0002H 000BH
00:0004 92-A0 02-F0              6128   	rb	0f002h.1
                                 6129   
                                 6130   ;;	OSCM1 = 1;			// 10 => Built-in PLL oscillation mode
                                 6131   CLINEA 0000H 0001H 07E8H 0002H 0034H
00:0008 B0-A0 02-F0              6132   	sb	0f002h.3
                                 6133   
                                 6134   ;;	OSCM0 = 0;
                                 6135   CLINEA 0000H 0001H 07E9H 0002H 000BH
00:000C A2-A0 02-F0              6136   	rb	0f002h.2
                                 6137   
                                 6138   ;;	ENOSC = 1;			//1=Enable High Speed Oscillator...
                                 6139   CLINEA 0000H 0001H 07EBH 0002H 0031H
00:0010 90-A0 03-F0              6140   	sb	0f003h.1
                                 6141   
                                 6142   ;;	SYSCLK = 1;			//1=HSCLK; 0=LSCLK 
                                 6143   CLINEA 0000H 0001H 07ECH 0002H 0022H
00:0014 80-A0 03-F0              6144   	sb	0f003h.0
                                 6145   
                                 6146   ;;	LPLL = 1;			//1=Enables the use of PLL oscillation - ADDED 4/30/2013
                                 6147   CLINEA 0000H 0001H 07EEH 0002H 0045H
00:0018 F0-A0 03-F0              6148   	sb	0f003h.7
                                 6149   
                                 6150   ;;	__EI();			//INT enable
                                 6151   CLINEA 0000H 0001H 07F0H 0002H 0017H
00:001C 08-ED                    6152   	ei
                                 6153   CBLOCKEND 181 2 2033
                                 6154   
                                 6155   ;;}
                                 6156   CLINEA 0000H 0001H 07F1H 0001H 0001H
00:001E 1F-FE                    6157   	rt
                                 6158   CBLOCKEND 181 1 2033
                                 6159   CFUNCTIONEND 181
                                 6160   
                                 6161   
  --------------------------     6162   	rseg $$PortA_Low$main
                                 6163   CFUNCTION 182
                                 6164   
00:0000                          6165   _PortA_Low	:
                                 6166   CBLOCK 182 1 2039
                                 6167   
                                 6168   ;;void PortA_Low(void){
                                 6169   CLINEA 0000H 0001H 07F7H 0001H 0015H
                                 6170   CBLOCK 182 2 2039
                                 6171   
                                 6172   ;;	PA0DIR = 0;		// PortA Bit0 set to Output Mode...
                                 6173   CLINEA 0000H 0001H 0801H 0002H 0031H
00:0000 82-A0 51-F2              6174   	rb	0f251h.0
                                 6175   
                                 6176   ;;	PA1DIR = 0;		// PortA Bit1 set to Output Mode...
                                 6177   CLINEA 0000H 0001H 0802H 0002H 0031H
00:0004 92-A0 51-F2              6178   	rb	0f251h.1
                                 6179   
                                 6180   ;;	PA2DIR = 0;		// PortA Bit2 set to Output Mode...
                                 6181   CLINEA 0000H 0001H 0803H 0002H 0031H
00:0008 A2-A0 51-F2              6182   	rb	0f251h.2
                                 6183   
                                 6184   ;;	PA0C1  = 1;		// PortA Bit0 set to CMOS Output...
                                 6185   CLINEA 0000H 0001H 0806H 0002H 0031H
00:000C 80-A0 53-F2              6186   	sb	0f253h.0
                                 6187   
                                 6188   ;;	PA0C0  = 1;		
                                 6189   CLINEA 0000H 0001H 0807H 0002H 000EH
00:0010 80-A0 52-F2              6190   	sb	0f252h.0
                                 6191   
                                 6192   ;;	PA1C1  = 1;		// PortA Bit1 set to CMOS Output...
                                 6193   CLINEA 0000H 0001H 0808H 0002H 0031H
00:0014 90-A0 53-F2              6194   	sb	0f253h.1
                                 6195   
                                 6196   ;;	PA1C0  = 1;	
                                 6197   CLINEA 0000H 0001H 0809H 0002H 000DH
00:0018 90-A0 52-F2              6198   	sb	0f252h.1
                                 6199   
                                 6200   ;;	PA2C1  = 1;		// PortA Bit2 set to CMOS Output...
                                 6201   CLINEA 0000H 0001H 080AH 0002H 0031H
00:001C A0-A0 53-F2              6202   	sb	0f253h.2
                                 6203   
                                 6204   ;;	PA2C0  = 1;	
                                 6205   CLINEA 0000H 0001H 080BH 0002H 000DH
00:0020 A0-A0 52-F2              6206   	sb	0f252h.2
                                 6207   
                                 6208   ;;	PA0MD1  = 0;	// PortA Bit0 set to General Purpose Output...
                                 6209   CLINEA 0000H 0001H 080EH 0002H 003CH
00:0024 82-A0 55-F2              6210   	rb	0f255h.0
                                 6211   
                                 6212   ;;	PA0MD0  = 0;	
                                 6213   CLINEA 0000H 0001H 080FH 0002H 000EH
00:0028 82-A0 54-F2              6214   	rb	0f254h.0
                                 6215   
                                 6216   ;;	PA1MD1  = 0;	// PortA Bit1 set to General Purpose Output...
                                 6217   CLINEA 0000H 0001H 0810H 0002H 003CH
00:002C 92-A0 55-F2              6218   	rb	0f255h.1
                                 6219   
                                 6220   ;;	PA1MD0  = 0;	
                                 6221   CLINEA 0000H 0001H 0811H 0002H 000EH
00:0030 92-A0 54-F2              6222   	rb	0f254h.1
                                 6223   
                                 6224   ;;	PA2MD1  = 0;	// PortA Bit2 set to General Purpose Output...
                                 6225   CLINEA 0000H 0001H 0812H 0002H 003CH
00:0034 A2-A0 55-F2              6226   	rb	0f255h.2
                                 6227   
                                 6228   ;;	PA2MD0  = 0;	
                                 6229   CLINEA 0000H 0001H 0813H 0002H 000EH
00:0038 A2-A0 54-F2              6230   	rb	0f254h.2
                                 6231   
                                 6232   ;;	PA0D = 0;		// A.0 Output OFF....
                                 6233   CLINEA 0000H 0001H 0816H 0002H 0021H
00:003C 82-A0 50-F2              6234   	rb	0f250h.0
                                 6235   
                                 6236   ;;	PA1D = 0;		// A.1 Output OFF....
                                 6237   CLINEA 0000H 0001H 0817H 0002H 0021H
00:0040 92-A0 50-F2              6238   	rb	0f250h.1
                                 6239   
                                 6240   ;;	PA2D = 0;		// A.2 Output OFF....
                                 6241   CLINEA 0000H 0001H 0818H 0002H 0021H
00:0044 A2-A0 50-F2              6242   	rb	0f250h.2
                                 6243   
                                 6244   ;;	main_clrWDT(); 	// Clear WDT
                                 6245   CLINEA 0000H 0001H 081AH 0002H 001DH
00:0048 00-F0'00-00'             6246   	b	_main_clrWDT
                                 6247   CBLOCKEND 182 2 2075
                                 6248   CLINEA 0000H 0001H 081BH 0001H 0001H
                                 6249   CBLOCKEND 182 1 2075
                                 6250   CFUNCTIONEND 182
                                 6251   
                                 6252   
  --------------------------     6253   	rseg $$PortB_Low$main
                                 6254   CFUNCTION 183
                                 6255   
00:0000                          6256   _PortB_Low	:
                                 6257   CBLOCK 183 1 2081
                                 6258   
                                 6259   ;;void PortB_Low(void){
                                 6260   CLINEA 0000H 0001H 0821H 0001H 0015H
                                 6261   CBLOCK 183 2 2081
                                 6262   
                                 6263   ;;	PB0DIR = 0;		// PortB Bit0 set to Output Mode...
                                 6264   CLINEA 0000H 0001H 082BH 0002H 0031H
00:0000 82-A0 59-F2              6265   	rb	0f259h.0
                                 6266   
                                 6267   ;;	PB1DIR = 0;		// PortB Bit1 set to Output Mode...
                                 6268   CLINEA 0000H 0001H 082CH 0002H 0031H
00:0004 92-A0 59-F2              6269   	rb	0f259h.1
                                 6270   
                                 6271   ;;	PB2DIR = 0;		// PortB Bit2 set to Output Mode...
                                 6272   CLINEA 0000H 0001H 082DH 0002H 0031H
00:0008 A2-A0 59-F2              6273   	rb	0f259h.2
                                 6274   
                                 6275   ;;	PB3DIR = 0;		// PortB Bit3 set to Output Mode...
                                 6276   CLINEA 0000H 0001H 082EH 0002H 0031H
00:000C B2-A0 59-F2              6277   	rb	0f259h.3
                                 6278   
                                 6279   ;;	PB4DIR = 0;		// PortB Bit4 set to Output Mode...
                                 6280   CLINEA 0000H 0001H 082FH 0002H 0031H
00:0010 C2-A0 59-F2              6281   	rb	0f259h.4
                                 6282   
                                 6283   ;;	PB5DIR = 0;		// PortB Bit5 set to Output Mode...
                                 6284   CLINEA 0000H 0001H 0830H 0002H 0031H
00:0014 D2-A0 59-F2              6285   	rb	0f259h.5
                                 6286   
                                 6287   ;;	PB6DIR = 0;		// PortB Bit6 set to Output Mode...
                                 6288   CLINEA 0000H 0001H 0831H 0002H 0031H
00:0018 E2-A0 59-F2              6289   	rb	0f259h.6
                                 6290   
                                 6291   ;;	PB7DIR = 0;		// PortB Bit7 set to Output Mode...
                                 6292   CLINEA 0000H 0001H 0832H 0002H 0031H
00:001C F2-A0 59-F2              6293   	rb	0f259h.7
                                 6294   
                                 6295   ;;	PB0C1  = 1;		// PortB Bit0 set to CMOS Output...
                                 6296   CLINEA 0000H 0001H 0835H 0002H 0031H
00:0020 80-A0 5B-F2              6297   	sb	0f25bh.0
                                 6298   
                                 6299   ;;	PB0C0  = 1;		
                                 6300   CLINEA 0000H 0001H 0836H 0002H 000EH
00:0024 80-A0 5A-F2              6301   	sb	0f25ah.0
                                 6302   
                                 6303   ;;	PB1C1  = 1;		// PortB Bit1 set to CMOS Output...
                                 6304   CLINEA 0000H 0001H 0837H 0002H 0031H
00:0028 90-A0 5B-F2              6305   	sb	0f25bh.1
                                 6306   
                                 6307   ;;	PB1C0  = 1;	
                                 6308   CLINEA 0000H 0001H 0838H 0002H 000DH
00:002C 90-A0 5A-F2              6309   	sb	0f25ah.1
                                 6310   
                                 6311   ;;	PB2C1  = 1;		// PortB Bit2 set to CMOS Output...
                                 6312   CLINEA 0000H 0001H 0839H 0002H 0031H
00:0030 A0-A0 5B-F2              6313   	sb	0f25bh.2
                                 6314   
                                 6315   ;;	PB2C0  = 1;	
                                 6316   CLINEA 0000H 0001H 083AH 0002H 000DH
00:0034 A0-A0 5A-F2              6317   	sb	0f25ah.2
                                 6318   
                                 6319   ;;	PB3C1  = 1;		// PortB Bit3 set to CMOS Output...
                                 6320   CLINEA 0000H 0001H 083BH 0002H 0031H
00:0038 B0-A0 5B-F2              6321   	sb	0f25bh.3
                                 6322   
                                 6323   ;;	PB3C0  = 1;		
                                 6324   CLINEA 0000H 0001H 083CH 0002H 000EH
00:003C B0-A0 5A-F2              6325   	sb	0f25ah.3
                                 6326   
                                 6327   ;;	PB4C1  = 1;		// PortB Bit4 set to CMOS Output...
                                 6328   CLINEA 0000H 0001H 083DH 0002H 0031H
00:0040 C0-A0 5B-F2              6329   	sb	0f25bh.4
                                 6330   
                                 6331   ;;	PB4C0  = 1;	
                                 6332   CLINEA 0000H 0001H 083EH 0002H 000DH
00:0044 C0-A0 5A-F2              6333   	sb	0f25ah.4
                                 6334   
                                 6335   ;;	PB5C1  = 1;		// PortB Bit5 set to CMOS Output...
                                 6336   CLINEA 0000H 0001H 083FH 0002H 0031H
00:0048 D0-A0 5B-F2              6337   	sb	0f25bh.5
                                 6338   
                                 6339   ;;	PB5C0  = 1;	
                                 6340   CLINEA 0000H 0001H 0840H 0002H 000DH
00:004C D0-A0 5A-F2              6341   	sb	0f25ah.5
                                 6342   
                                 6343   ;;	PB6C1  = 1;		// PortB Bit6 set to CMOS Output...
                                 6344   CLINEA 0000H 0001H 0841H 0002H 0031H
00:0050 E0-A0 5B-F2              6345   	sb	0f25bh.6
                                 6346   
                                 6347   ;;	PB6C0  = 1;	
                                 6348   CLINEA 0000H 0001H 0842H 0002H 000DH
00:0054 E0-A0 5A-F2              6349   	sb	0f25ah.6
                                 6350   
                                 6351   ;;	PB7C1  = 1;		// PortB Bit7 set to CMOS Output...
                                 6352   CLINEA 0000H 0001H 0843H 0002H 0031H
00:0058 F0-A0 5B-F2              6353   	sb	0f25bh.7
                                 6354   
                                 6355   ;;	PB7C0  = 1;	
                                 6356   CLINEA 0000H 0001H 0844H 0002H 000DH
00:005C F0-A0 5A-F2              6357   	sb	0f25ah.7
                                 6358   
                                 6359   ;;	PB0MD1  = 0;	// PortB Bit0 set to General Purpose Output...
                                 6360   CLINEA 0000H 0001H 0847H 0002H 003CH
00:0060 82-A0 5D-F2              6361   	rb	0f25dh.0
                                 6362   
                                 6363   ;;	PB0MD0  = 0;	
                                 6364   CLINEA 0000H 0001H 0848H 0002H 000EH
00:0064 82-A0 5C-F2              6365   	rb	0f25ch.0
                                 6366   
                                 6367   ;;	PB1MD1  = 0;	// PortB Bit1 set to General Purpose Output...
                                 6368   CLINEA 0000H 0001H 0849H 0002H 003CH
00:0068 92-A0 5D-F2              6369   	rb	0f25dh.1
                                 6370   
                                 6371   ;;	PB1MD0  = 0;	
                                 6372   CLINEA 0000H 0001H 084AH 0002H 000EH
00:006C 92-A0 5C-F2              6373   	rb	0f25ch.1
                                 6374   
                                 6375   ;;	PB2MD1  = 0;	// PortB Bit2 set to General Purpose Output...
                                 6376   CLINEA 0000H 0001H 084BH 0002H 003CH
00:0070 A2-A0 5D-F2              6377   	rb	0f25dh.2
                                 6378   
                                 6379   ;;	PB2MD0  = 0;	
                                 6380   CLINEA 0000H 0001H 084CH 0002H 000EH
00:0074 A2-A0 5C-F2              6381   	rb	0f25ch.2
                                 6382   
                                 6383   ;;	PB3MD1  = 0;	// PortB Bit3 set to General Purpose Output...
                                 6384   CLINEA 0000H 0001H 084DH 0002H 003CH
00:0078 B2-A0 5D-F2              6385   	rb	0f25dh.3
                                 6386   
                                 6387   ;;	PB3MD0  = 0;	
                                 6388   CLINEA 0000H 0001H 084EH 0002H 000EH
00:007C B2-A0 5C-F2              6389   	rb	0f25ch.3
                                 6390   
                                 6391   ;;	PB4MD1  = 0;	// PortB Bit4 set to General Purpose Output...
                                 6392   CLINEA 0000H 0001H 084FH 0002H 003CH
00:0080 C2-A0 5D-F2              6393   	rb	0f25dh.4
                                 6394   
                                 6395   ;;	PB4MD0  = 0;	
                                 6396   CLINEA 0000H 0001H 0850H 0002H 000EH
00:0084 C2-A0 5C-F2              6397   	rb	0f25ch.4
                                 6398   
                                 6399   ;;	PB5MD1  = 0;	// PortB Bit5 set to General Purpose Output...
                                 6400   CLINEA 0000H 0001H 0851H 0002H 003CH
00:0088 D2-A0 5D-F2              6401   	rb	0f25dh.5
                                 6402   
                                 6403   ;;	PB5MD0  = 0;
                                 6404   CLINEA 0000H 0001H 0852H 0002H 000DH
00:008C D2-A0 5C-F2              6405   	rb	0f25ch.5
                                 6406   
                                 6407   ;;	PB6MD1  = 0;	// PortB Bit6 set to General Purpose Output...
                                 6408   CLINEA 0000H 0001H 0853H 0002H 003CH
00:0090 E2-A0 5D-F2              6409   	rb	0f25dh.6
                                 6410   
                                 6411   ;;	PB6MD0  = 0;	
                                 6412   CLINEA 0000H 0001H 0854H 0002H 000EH
00:0094 E2-A0 5C-F2              6413   	rb	0f25ch.6
                                 6414   
                                 6415   ;;	PB7MD1  = 0;	// PortB Bit7 set to General Purpose Output...
                                 6416   CLINEA 0000H 0001H 0855H 0002H 003CH
00:0098 F2-A0 5D-F2              6417   	rb	0f25dh.7
                                 6418   
                                 6419   ;;	PB7MD0  = 0;
                                 6420   CLINEA 0000H 0001H 0856H 0002H 000DH
00:009C F2-A0 5C-F2              6421   	rb	0f25ch.7
                                 6422   
                                 6423   ;;	PB0D = 0;		// B.0 Output OFF....
                                 6424   CLINEA 0000H 0001H 0859H 0002H 0021H
00:00A0 82-A0 58-F2              6425   	rb	0f258h.0
                                 6426   
                                 6427   ;;	PB1D = 0;		// B.1 Output OFF....
                                 6428   CLINEA 0000H 0001H 085AH 0002H 0021H
00:00A4 92-A0 58-F2              6429   	rb	0f258h.1
                                 6430   
                                 6431   ;;	PB2D = 0;		// B.2 Output OFF....
                                 6432   CLINEA 0000H 0001H 085BH 0002H 0021H
00:00A8 A2-A0 58-F2              6433   	rb	0f258h.2
                                 6434   
                                 6435   ;;	PB3D = 0;		// B.3 Output OFF....
                                 6436   CLINEA 0000H 0001H 085CH 0002H 0021H
00:00AC B2-A0 58-F2              6437   	rb	0f258h.3
                                 6438   
                                 6439   ;;	PB4D = 0;		// B.4 Output OFF....
                                 6440   CLINEA 0000H 0001H 085DH 0002H 0021H
00:00B0 C2-A0 58-F2              6441   	rb	0f258h.4
                                 6442   
                                 6443   ;;	PB5D = 0;		// B.5 Output OFF....
                                 6444   CLINEA 0000H 0001H 085EH 0002H 0021H
00:00B4 D2-A0 58-F2              6445   	rb	0f258h.5
                                 6446   
                                 6447   ;;	PB6D = 0;		// B.6 Output OFF....
                                 6448   CLINEA 0000H 0001H 085FH 0002H 0021H
00:00B8 E2-A0 58-F2              6449   	rb	0f258h.6
                                 6450   
                                 6451   ;;	PB7D = 0;		// B.7 Output OFF....
                                 6452   CLINEA 0000H 0001H 0860H 0002H 0021H
00:00BC F2-A0 58-F2              6453   	rb	0f258h.7
                                 6454   
                                 6455   ;;	main_clrWDT(); 	// Clear WDT
                                 6456   CLINEA 0000H 0001H 0862H 0002H 001DH
00:00C0 00-F0'00-00'             6457   	b	_main_clrWDT
                                 6458   CBLOCKEND 183 2 2147
                                 6459   CLINEA 0000H 0001H 0863H 0001H 0001H
                                 6460   CBLOCKEND 183 1 2147
                                 6461   CFUNCTIONEND 183
                                 6462   
                                 6463   
  --------------------------     6464   	rseg $$PortC_Low$main
                                 6465   CFUNCTION 184
                                 6466   
00:0000                          6467   _PortC_Low	:
                                 6468   CBLOCK 184 1 2153
                                 6469   
                                 6470   ;;void PortC_Low(void){
                                 6471   CLINEA 0000H 0001H 0869H 0001H 0015H
                                 6472   CBLOCK 184 2 2153
                                 6473   
                                 6474   ;;	PC0DIR = 0;		// PortC Bit0 set to Output Mode...
                                 6475   CLINEA 0000H 0001H 0873H 0002H 0031H
00:0000 82-A0 61-F2              6476   	rb	0f261h.0
                                 6477   
                                 6478   ;;	PC1DIR = 0;		// PortC Bit1 set to Output Mode...
                                 6479   CLINEA 0000H 0001H 0874H 0002H 0031H
00:0004 92-A0 61-F2              6480   	rb	0f261h.1
                                 6481   
                                 6482   ;;	PC2DIR = 0;		// PortC Bit2 set to Output Mode...
                                 6483   CLINEA 0000H 0001H 0875H 0002H 0031H
00:0008 A2-A0 61-F2              6484   	rb	0f261h.2
                                 6485   
                                 6486   ;;	PC3DIR = 0;		// PortC Bit3 set to Output Mode...
                                 6487   CLINEA 0000H 0001H 0876H 0002H 0031H
00:000C B2-A0 61-F2              6488   	rb	0f261h.3
                                 6489   
                                 6490   ;;	PC4DIR = 0;		// PortC Bit4 set to Output Mode...
                                 6491   CLINEA 0000H 0001H 0877H 0002H 0031H
00:0010 C2-A0 61-F2              6492   	rb	0f261h.4
                                 6493   
                                 6494   ;;	PC5DIR = 0;		// PortC Bit5 set to Output Mode...
                                 6495   CLINEA 0000H 0001H 0878H 0002H 0031H
00:0014 D2-A0 61-F2              6496   	rb	0f261h.5
                                 6497   
                                 6498   ;;	PC6DIR = 0;		// PortC Bit6 set to Output Mode...
                                 6499   CLINEA 0000H 0001H 0879H 0002H 0031H
00:0018 E2-A0 61-F2              6500   	rb	0f261h.6
                                 6501   
                                 6502   ;;	PC7DIR = 0;		// PortC Bit7 set to Output Mode...
                                 6503   CLINEA 0000H 0001H 087AH 0002H 0031H
00:001C F2-A0 61-F2              6504   	rb	0f261h.7
                                 6505   
                                 6506   ;;	PC0C1  = 1;		// PortC Bit0 set to High-Impedance Output...
                                 6507   CLINEA 0000H 0001H 087DH 0002H 003BH
00:0020 80-A0 63-F2              6508   	sb	0f263h.0
                                 6509   
                                 6510   ;;	PC0C0  = 1;		
                                 6511   CLINEA 0000H 0001H 087EH 0002H 000EH
00:0024 80-A0 62-F2              6512   	sb	0f262h.0
                                 6513   
                                 6514   ;;	PC1C1  = 1;		// PortC Bit1 set to High-Impedance Output...
                                 6515   CLINEA 0000H 0001H 087FH 0002H 003BH
00:0028 90-A0 63-F2              6516   	sb	0f263h.1
                                 6517   
                                 6518   ;;	PC1C0  = 1;	
                                 6519   CLINEA 0000H 0001H 0880H 0002H 000DH
00:002C 90-A0 62-F2              6520   	sb	0f262h.1
                                 6521   
                                 6522   ;;	PC2C1  = 1;		// PortC Bit2 set to High-Impedance Output...
                                 6523   CLINEA 0000H 0001H 0881H 0002H 003BH
00:0030 A0-A0 63-F2              6524   	sb	0f263h.2
                                 6525   
                                 6526   ;;	PC2C0  = 1;	
                                 6527   CLINEA 0000H 0001H 0882H 0002H 000DH
00:0034 A0-A0 62-F2              6528   	sb	0f262h.2
                                 6529   
                                 6530   ;;	PC3C1  = 1;		// PortC Bit3 set to High-Impedance Output...
                                 6531   CLINEA 0000H 0001H 0883H 0002H 003BH
00:0038 B0-A0 63-F2              6532   	sb	0f263h.3
                                 6533   
                                 6534   ;;	PC3C0  = 1;		
                                 6535   CLINEA 0000H 0001H 0884H 0002H 000EH
00:003C B0-A0 62-F2              6536   	sb	0f262h.3
                                 6537   
                                 6538   ;;	PC4C1  = 1;		// PortC Bit4 set to High-Impedance Output...
                                 6539   CLINEA 0000H 0001H 0885H 0002H 003BH
00:0040 C0-A0 63-F2              6540   	sb	0f263h.4
                                 6541   
                                 6542   ;;	PC4C0  = 1;	
                                 6543   CLINEA 0000H 0001H 0886H 0002H 000DH
00:0044 C0-A0 62-F2              6544   	sb	0f262h.4
                                 6545   
                                 6546   ;;	PC5C1  = 1;		// PortC Bit5 set to High-Impedance Output...
                                 6547   CLINEA 0000H 0001H 0887H 0002H 003BH
00:0048 D0-A0 63-F2              6548   	sb	0f263h.5
                                 6549   
                                 6550   ;;	PC5C0  = 1;	
                                 6551   CLINEA 0000H 0001H 0888H 0002H 000DH
00:004C D0-A0 62-F2              6552   	sb	0f262h.5
                                 6553   
                                 6554   ;;	PC6C1  = 1;		// PortC Bit6 set to High-Impedance Output...
                                 6555   CLINEA 0000H 0001H 0889H 0002H 003BH
00:0050 E0-A0 63-F2              6556   	sb	0f263h.6
                                 6557   
                                 6558   ;;	PC6C0  = 1;	
                                 6559   CLINEA 0000H 0001H 088AH 0002H 000DH
00:0054 E0-A0 62-F2              6560   	sb	0f262h.6
                                 6561   
                                 6562   ;;	PC7C1  = 1;		// PortC Bit7 set to High-Impedance Output...
                                 6563   CLINEA 0000H 0001H 088BH 0002H 003BH
00:0058 F0-A0 63-F2              6564   	sb	0f263h.7
                                 6565   
                                 6566   ;;	PC7C0  = 1;	
                                 6567   CLINEA 0000H 0001H 088CH 0002H 000DH
00:005C F0-A0 62-F2              6568   	sb	0f262h.7
                                 6569   
                                 6570   ;;	PC0MD1  = 0;	// PortC Bit0 set to General Purpose Output...
                                 6571   CLINEA 0000H 0001H 088FH 0002H 003CH
00:0060 82-A0 65-F2              6572   	rb	0f265h.0
                                 6573   
                                 6574   ;;	PC0MD0  = 0;	
                                 6575   CLINEA 0000H 0001H 0890H 0002H 000EH
00:0064 82-A0 64-F2              6576   	rb	0f264h.0
                                 6577   
                                 6578   ;;	PC1MD1  = 0;	// PortC Bit1 set to General Purpose Output...
                                 6579   CLINEA 0000H 0001H 0891H 0002H 003CH
00:0068 92-A0 65-F2              6580   	rb	0f265h.1
                                 6581   
                                 6582   ;;	PC1MD0  = 0;	
                                 6583   CLINEA 0000H 0001H 0892H 0002H 000EH
00:006C 92-A0 64-F2              6584   	rb	0f264h.1
                                 6585   
                                 6586   ;;	PC2MD1  = 0;	// PortC Bit2 set to General Purpose Output...
                                 6587   CLINEA 0000H 0001H 0893H 0002H 003CH
00:0070 A2-A0 65-F2              6588   	rb	0f265h.2
                                 6589   
                                 6590   ;;	PC2MD0  = 0;	
                                 6591   CLINEA 0000H 0001H 0894H 0002H 000EH
00:0074 A2-A0 64-F2              6592   	rb	0f264h.2
                                 6593   
                                 6594   ;;	PC3MD1  = 0;	// PortC Bit3 set to General Purpose Output...
                                 6595   CLINEA 0000H 0001H 0895H 0002H 003CH
00:0078 B2-A0 65-F2              6596   	rb	0f265h.3
                                 6597   
                                 6598   ;;	PC3MD0  = 0;	
                                 6599   CLINEA 0000H 0001H 0896H 0002H 000EH
00:007C B2-A0 64-F2              6600   	rb	0f264h.3
                                 6601   
                                 6602   ;;	PC4MD1  = 0;	// PortC Bit4 set to General Purpose Output...
                                 6603   CLINEA 0000H 0001H 0897H 0002H 003CH
00:0080 C2-A0 65-F2              6604   	rb	0f265h.4
                                 6605   
                                 6606   ;;	PC4MD0  = 0;	
                                 6607   CLINEA 0000H 0001H 0898H 0002H 000EH
00:0084 C2-A0 64-F2              6608   	rb	0f264h.4
                                 6609   
                                 6610   ;;	PC5MD1  = 0;	// PortC Bit5 set to General Purpose Output...
                                 6611   CLINEA 0000H 0001H 0899H 0002H 003CH
00:0088 D2-A0 65-F2              6612   	rb	0f265h.5
                                 6613   
                                 6614   ;;	PC5MD0  = 0;
                                 6615   CLINEA 0000H 0001H 089AH 0002H 000DH
00:008C D2-A0 64-F2              6616   	rb	0f264h.5
                                 6617   
                                 6618   ;;	PC6MD1  = 0;	// PortC Bit6 set to General Purpose Output...
                                 6619   CLINEA 0000H 0001H 089BH 0002H 003CH
00:0090 E2-A0 65-F2              6620   	rb	0f265h.6
                                 6621   
                                 6622   ;;	PC6MD0  = 0;	
                                 6623   CLINEA 0000H 0001H 089CH 0002H 000EH
00:0094 E2-A0 64-F2              6624   	rb	0f264h.6
                                 6625   
                                 6626   ;;	PC7MD1  = 0;	// PortC Bit7 set to General Purpose Output...
                                 6627   CLINEA 0000H 0001H 089DH 0002H 003CH
00:0098 F2-A0 65-F2              6628   	rb	0f265h.7
                                 6629   
                                 6630   ;;	PC7MD0  = 0;
                                 6631   CLINEA 0000H 0001H 089EH 0002H 000DH
00:009C F2-A0 64-F2              6632   	rb	0f264h.7
                                 6633   
                                 6634   ;;	PC0D = 0;		// C.0 Output OFF....
                                 6635   CLINEA 0000H 0001H 08A1H 0002H 0021H
00:00A0 82-A0 60-F2              6636   	rb	0f260h.0
                                 6637   
                                 6638   ;;	PC1D = 0;		// C.1 Output OFF....
                                 6639   CLINEA 0000H 0001H 08A2H 0002H 0021H
00:00A4 92-A0 60-F2              6640   	rb	0f260h.1
                                 6641   
                                 6642   ;;	PC2D = 0;		// C.2 Output OFF....
                                 6643   CLINEA 0000H 0001H 08A3H 0002H 0021H
00:00A8 A2-A0 60-F2              6644   	rb	0f260h.2
                                 6645   
                                 6646   ;;	PC3D = 0;		// C.3 Output OFF....
                                 6647   CLINEA 0000H 0001H 08A4H 0002H 0021H
00:00AC B2-A0 60-F2              6648   	rb	0f260h.3
                                 6649   
                                 6650   ;;	PC4D = 0;		// C.4 Output OFF....
                                 6651   CLINEA 0000H 0001H 08A5H 0002H 0021H
00:00B0 C2-A0 60-F2              6652   	rb	0f260h.4
                                 6653   
                                 6654   ;;	PC5D = 0;		// C.5 Output OFF....
                                 6655   CLINEA 0000H 0001H 08A6H 0002H 0021H
00:00B4 D2-A0 60-F2              6656   	rb	0f260h.5
                                 6657   
                                 6658   ;;	PC6D = 0;		// C.6 Output OFF....
                                 6659   CLINEA 0000H 0001H 08A7H 0002H 0021H
00:00B8 E2-A0 60-F2              6660   	rb	0f260h.6
                                 6661   
                                 6662   ;;	PC7D = 0;		// C.7 Output OFF....
                                 6663   CLINEA 0000H 0001H 08A8H 0002H 0021H
00:00BC F2-A0 60-F2              6664   	rb	0f260h.7
                                 6665   
                                 6666   ;;	main_clrWDT(); 	// Clear WDT
                                 6667   CLINEA 0000H 0001H 08AAH 0002H 001DH
00:00C0 00-F0'00-00'             6668   	b	_main_clrWDT
                                 6669   CBLOCKEND 184 2 2220
                                 6670   CLINEA 0000H 0001H 08ACH 0001H 0001H
                                 6671   CBLOCKEND 184 1 2220
                                 6672   CFUNCTIONEND 184
                                 6673   
                                 6674   
  --------------------------     6675   	rseg $$PortD_Low$main
                                 6676   CFUNCTION 185
                                 6677   
00:0000                          6678   _PortD_Low	:
                                 6679   CBLOCK 185 1 2226
                                 6680   
                                 6681   ;;void PortD_Low(void){
                                 6682   CLINEA 0000H 0001H 08B2H 0001H 0015H
                                 6683   CBLOCK 185 2 2226
                                 6684   
                                 6685   ;;	PD0DIR = 1;		// PortD Bit0 set to Input Mode...
                                 6686   CLINEA 0000H 0001H 08BBH 0002H 0030H
00:0000 80-A0 69-F2              6687   	sb	0f269h.0
                                 6688   
                                 6689   ;;	PD1DIR = 1;		// PortD Bit1 set to Input Mode...
                                 6690   CLINEA 0000H 0001H 08BCH 0002H 0030H
00:0004 90-A0 69-F2              6691   	sb	0f269h.1
                                 6692   
                                 6693   ;;	PD2DIR = 1;		// PortD Bit2 set to Input Mode...
                                 6694   CLINEA 0000H 0001H 08BDH 0002H 0030H
00:0008 A0-A0 69-F2              6695   	sb	0f269h.2
                                 6696   
                                 6697   ;;	PD3DIR = 1;		// PortD Bit3 set to Input Mode...
                                 6698   CLINEA 0000H 0001H 08BEH 0002H 0030H
00:000C B0-A0 69-F2              6699   	sb	0f269h.3
                                 6700   
                                 6701   ;;	PD4DIR = 1;		// PortD Bit4 set to Input Mode...
                                 6702   CLINEA 0000H 0001H 08BFH 0002H 0030H
00:0010 C0-A0 69-F2              6703   	sb	0f269h.4
                                 6704   
                                 6705   ;;	PD5DIR = 1;		// PortD Bit5 set to Input Mode...
                                 6706   CLINEA 0000H 0001H 08C0H 0002H 0030H
00:0014 D0-A0 69-F2              6707   	sb	0f269h.5
                                 6708   
                                 6709   ;;	PD0C1= 1;		// PortD Bit0 set to High-impedance input...
                                 6710   CLINEA 0000H 0001H 08C3H 0002H 0038H
00:0018 80-A0 6B-F2              6711   	sb	0f26bh.0
                                 6712   
                                 6713   ;;	PD0C0= 1;		
                                 6714   CLINEA 0000H 0001H 08C4H 0002H 000CH
00:001C 80-A0 6A-F2              6715   	sb	0f26ah.0
                                 6716   
                                 6717   ;;	PD1C1= 1;		// PortD Bit1 set to High-impedance input...
                                 6718   CLINEA 0000H 0001H 08C5H 0002H 0038H
00:0020 90-A0 6B-F2              6719   	sb	0f26bh.1
                                 6720   
                                 6721   ;;	PD1C0= 1;	
                                 6722   CLINEA 0000H 0001H 08C6H 0002H 000BH
00:0024 90-A0 6A-F2              6723   	sb	0f26ah.1
                                 6724   
                                 6725   ;;	PD2C1= 1;		// PortD Bit2 set to High-impedance input...
                                 6726   CLINEA 0000H 0001H 08C7H 0002H 0038H
00:0028 A0-A0 6B-F2              6727   	sb	0f26bh.2
                                 6728   
                                 6729   ;;	PD2C0= 1;	
                                 6730   CLINEA 0000H 0001H 08C8H 0002H 000BH
00:002C A0-A0 6A-F2              6731   	sb	0f26ah.2
                                 6732   
                                 6733   ;;	PD3C1= 1;		// PortD Bit3 set to High-impedance input...
                                 6734   CLINEA 0000H 0001H 08C9H 0002H 0038H
00:0030 B0-A0 6B-F2              6735   	sb	0f26bh.3
                                 6736   
                                 6737   ;;	PD3C0= 1;		
                                 6738   CLINEA 0000H 0001H 08CAH 0002H 000CH
00:0034 B0-A0 6A-F2              6739   	sb	0f26ah.3
                                 6740   
                                 6741   ;;	PD4C1= 1;		// PortD Bit4 set to High-impedance input...
                                 6742   CLINEA 0000H 0001H 08CBH 0002H 0038H
00:0038 C0-A0 6B-F2              6743   	sb	0f26bh.4
                                 6744   
                                 6745   ;;	PD4C0= 1;	
                                 6746   CLINEA 0000H 0001H 08CCH 0002H 000BH
00:003C C0-A0 6A-F2              6747   	sb	0f26ah.4
                                 6748   
                                 6749   ;;	PD5C1= 1;		// PortD Bit5 set to High-impedance input...
                                 6750   CLINEA 0000H 0001H 08CDH 0002H 0038H
00:0040 D0-A0 6B-F2              6751   	sb	0f26bh.5
                                 6752   
                                 6753   ;;	PD5C0= 1;	
                                 6754   CLINEA 0000H 0001H 08CEH 0002H 000BH
00:0044 D0-A0 6A-F2              6755   	sb	0f26ah.5
                                 6756   
                                 6757   ;;	PD0D = 0;		// D.0 Input OFF....
                                 6758   CLINEA 0000H 0001H 08D1H 0002H 0020H
00:0048 82-A0 68-F2              6759   	rb	0f268h.0
                                 6760   
                                 6761   ;;	PD1D = 0;		// D.1 Input OFF....
                                 6762   CLINEA 0000H 0001H 08D2H 0002H 0020H
00:004C 92-A0 68-F2              6763   	rb	0f268h.1
                                 6764   
                                 6765   ;;	PD2D = 0;		// D.2 Input OFF....
                                 6766   CLINEA 0000H 0001H 08D3H 0002H 0020H
00:0050 A2-A0 68-F2              6767   	rb	0f268h.2
                                 6768   
                                 6769   ;;	PD3D = 0;		// D.3 Input OFF....
                                 6770   CLINEA 0000H 0001H 08D4H 0002H 0020H
00:0054 B2-A0 68-F2              6771   	rb	0f268h.3
                                 6772   
                                 6773   ;;	PD4D = 0;		// D.4 Input OFF....
                                 6774   CLINEA 0000H 0001H 08D5H 0002H 0020H
00:0058 C2-A0 68-F2              6775   	rb	0f268h.4
                                 6776   
                                 6777   ;;	PD5D = 0;		// D.5 Input OFF....
                                 6778   CLINEA 0000H 0001H 08D6H 0002H 0020H
00:005C D2-A0 68-F2              6779   	rb	0f268h.5
                                 6780   
                                 6781   ;;	main_clrWDT(); 	// Clear WDT
                                 6782   CLINEA 0000H 0001H 08D8H 0002H 001DH
00:0060 00-F0'00-00'             6783   	b	_main_clrWDT
                                 6784   CBLOCKEND 185 2 2265
                                 6785   CLINEA 0000H 0001H 08D9H 0001H 0001H
                                 6786   CBLOCKEND 185 1 2265
                                 6787   CFUNCTIONEND 185
                                 6788   
                                 6789   
  --------------------------     6790   	rseg $$NOPms$main
                                 6791   CFUNCTION 196
                                 6792   
00:0000                          6793   _NOPms	:
                                 6794   CBLOCK 196 1 2279
                                 6795   
                                 6796   ;;{
                                 6797   CLINEA 0000H 0001H 08E7H 0001H 0001H
00:0000 CE-F8                    6798   	push	lr
00:0002 6E-F4                    6799   	push	xr4
00:0004 5E-FC                    6800   	push	bp
00:0006 5E-F8                    6801   	push	er8
00:0008 05-F8                    6802   	mov	er8,	er0
                                 6803   CBLOCK 196 2 2279
                                 6804   CRET 0008H
                                 6805   CARGUMENT 46H 0002H 0028H "ms" 02H 00H 01H
                                 6806   CLOCAL 46H 0002H 002AH 0002H "timerThres" 02H 00H 01H
                                 6807   CLOCAL 46H 0001H 001AH 0002H "TimeFlag" 02H 00H 00H
                                 6808   CLOCAL 46H 0002H 0026H 0002H "TempSec" 02H 00H 01H
                                 6809   CLOCAL 46H 0002H 0024H 0002H "timer" 02H 00H 01H
                                 6810   CLOCAL 4AH 0002H 0000H 0002H "timertest" 02H 00H 01H
                                 6811   
                                 6812   ;;	TempSec = ms;
                                 6813   CLINEA 0000H 0001H 08EEH 0002H 000EH
00:000A 05-F4                    6814   	mov	er4,	er0
                                 6815   
                                 6816   ;;	TimeFlag = 0;
                                 6817   CLINEA 0000H 0001H 08EFH 0002H 000EH
00:000C 00 06                    6818   	mov	r6,	#00h
                                 6819   
                                 6820   ;;	tm_init(TM_CH_NO_AB);
                                 6821   CLINEA 0000H 0001H 08F1H 0002H 0016H
00:000E 01 00                    6822   	mov	r0,	#01h
00:0010 01-F0'00-00'             6823   	bl	_tm_init
                                 6824   
                                 6825   ;;	tm_setABSource(TM_CS_HTBCLK);
                                 6826   CLINEA 0000H 0000H 018DH 0002H 0015H
00:0014 80-A0 EA-F8              6827   	sb	0f8eah.0
                                 6828   
                                 6829   ;;	tm_setABSource(TM_CS_HTBCLK);
                                 6830   CLINEA 0000H 0000H 018EH 0002H 001AH
00:0018 92-A0 EA-F8              6831   	rb	0f8eah.1
                                 6832   
                                 6833   ;;	tm_setABData(0xffff);
                                 6834   CLINEA 0000H 0000H 0157H 0002H 0025H
00:001C FF 00                    6835   	mov	r0,	#0ffh
00:001E 11-90 E8-F8              6836   	st	r0,	0f8e8h
                                 6837   
                                 6838   ;;	tm_setABData(0xffff);
                                 6839   CLINEA 0000H 0000H 0158H 0002H 0023H
00:0022 11-90 EC-F8              6840   	st	r0,	0f8ech
                                 6841   
                                 6842   ;;	if(ms < 128){
                                 6843   CLINEA 0000H 0001H 08F5H 0002H 000EH
00:0026 85-F0                    6844   	mov	er0,	er8
00:0028 80 78                    6845   	cmp	r8,	#080h
00:002A 00 59                    6846   	cmpc	r9,	#00h
00:002C 07 C0                    6847   	bge	_$L324
                                 6848   CBLOCK 196 3 2293
                                 6849   
                                 6850   ;;		timerThres = 0x1FF * ms;
                                 6851   CLINEA 0000H 0001H 08F6H 0003H 001AH
00:002E 7B-91                    6852   	sllc	r1,	#07h
00:0030 7A-90                    6853   	sll	r0,	#07h
00:0032 2B-91                    6854   	sllc	r1,	#02h
00:0034 2A-90                    6855   	sll	r0,	#02h
00:0036 88-80                    6856   	sub	r0,	r8
00:0038 99-81                    6857   	subc	r1,	r9
00:003A 05-FC                    6858   	mov	bp,	er0
                                 6859   
                                 6860   ;;		TimeFlag = 0;
                                 6861   CLINEA 0000H 0001H 08F7H 0003H 000FH
                                 6862   CBLOCKEND 196 3 2296
                                 6863   
                                 6864   ;;	}
                                 6865   CLINEA 0000H 0000H 08F8H 0002H 0002H
00:003C                          6866   _$L324 :
                                 6867   
                                 6868   ;;	if(ms == 128){
                                 6869   CLINEA 0000H 0001H 08F9H 0002H 000FH
00:003C 80 78                    6870   	cmp	r8,	#080h
00:003E 00 59                    6871   	cmpc	r9,	#00h
00:0040 02 C8                    6872   	bne	_$L326
                                 6873   CBLOCK 196 4 2297
                                 6874   
                                 6875   ;;		timerThres = 0xFFFF;
                                 6876   CLINEA 0000H 0001H 08FAH 0003H 0016H
00:0042 7F EC                    6877   	mov	bp,	#-1
                                 6878   
                                 6879   ;;		TimeFlag = 0;
                                 6880   CLINEA 0000H 0001H 08FBH 0003H 000FH
00:0044 00 06                    6881   	mov	r6,	#00h
                                 6882   CBLOCKEND 196 4 2300
                                 6883   
                                 6884   ;;	}
                                 6885   CLINEA 0000H 0000H 08FCH 0002H 0002H
00:0046                          6886   _$L326 :
                                 6887   
                                 6888   ;;	if(ms > 128){
                                 6889   CLINEA 0000H 0001H 08FDH 0002H 000EH
00:0046 80 78                    6890   	cmp	r8,	#080h
00:0048 00 59                    6891   	cmpc	r9,	#00h
00:004A 15 C3                    6892   	ble	_$L336
                                 6893   CBLOCK 196 5 2301
                                 6894   
                                 6895   ;;		while(TempSec > 128){
                                 6896   CLINEA 0000H 0000H 08FEH 0001H 0001H
00:004C 04 CE                    6897   	bal	_$L346
                                 6898   
                                 6899   ;;		while(TempSec > 128){
                                 6900   CLINEA 0000H 0000H 08FEH 0003H 0017H
00:004E                          6901   _$L332 :
                                 6902   CBLOCK 196 6 2302
                                 6903   
                                 6904   ;;			TempSec -= 128;
                                 6905   CLINEA 0000H 0001H 08FFH 0004H 0012H
00:004E 80 10                    6906   	add	r0,	#080h
00:0050 FF 61                    6907   	addc	r1,	#0ffh
00:0052 05-F4                    6908   	mov	er4,	er0
                                 6909   
                                 6910   ;;			TimeFlag++;
                                 6911   CLINEA 0000H 0000H 0900H 0004H 000EH
00:0054 01 16                    6912   	add	r6,	#01h
                                 6913   CBLOCKEND 196 6 2305
                                 6914   
                                 6915   ;;		while(TempSec > 128){
                                 6916   CLINEA 0000H 0000H 08FEH 0001H 0001H
00:0056                          6917   _$L346 :
00:0056 45-F0                    6918   	mov	er0,	er4
00:0058 80 74                    6919   	cmp	r4,	#080h
00:005A 00 55                    6920   	cmpc	r5,	#00h
00:005C F8 C2                    6921   	bgt	_$L332
                                 6922   
                                 6923   ;;		if(TempSec != 0){
                                 6924   CLINEA 0000H 0001H 0902H 0003H 0013H
00:005E 45-F4                    6925   	mov	er4,	er4
00:0060 08 C9                    6926   	beq	_$L334
                                 6927   CBLOCK 196 7 2306
                                 6928   
                                 6929   ;;			timerThres = 0x1FF * TempSec;
                                 6930   CLINEA 0000H 0001H 0903H 0004H 0020H
00:0062 7B-91                    6931   	sllc	r1,	#07h
00:0064 7A-90                    6932   	sll	r0,	#07h
00:0066 2B-91                    6933   	sllc	r1,	#02h
00:0068 2A-90                    6934   	sll	r0,	#02h
00:006A 48-80                    6935   	sub	r0,	r4
00:006C 59-81                    6936   	subc	r1,	r5
00:006E 05-FC                    6937   	mov	bp,	er0
                                 6938   CBLOCKEND 196 7 2308
                                 6939   
                                 6940   ;;		else{
                                 6941   CLINEA 0000H 0001H 0905H 0003H 0007H
00:0070 02 CE                    6942   	bal	_$L336
00:0072                          6943   _$L334 :
                                 6944   CBLOCK 196 8 2309
                                 6945   
                                 6946   ;;			timerThres = 0xFFFF;
                                 6947   CLINEA 0000H 0001H 0906H 0004H 0017H
00:0072 7F EC                    6948   	mov	bp,	#-1
                                 6949   
                                 6950   ;;			TimeFlag--;
                                 6951   CLINEA 0000H 0000H 0907H 0004H 000EH
00:0074 FF 16                    6952   	add	r6,	#0ffh
                                 6953   CBLOCKEND 196 8 2312
                                 6954   
                                 6955   ;;		}
                                 6956   CLINEA 0000H 0000H 0908H 0003H 0003H
00:0076                          6957   _$L336 :
                                 6958   CBLOCKEND 196 5 2313
                                 6959   
                                 6960   ;;	main_clrWDT();	
                                 6961   CLINEA 0000H 0001H 090CH 0002H 0010H
00:0076 01-F0'00-00'             6962   	bl	_main_clrWDT
                                 6963   
                                 6964   ;;	tm_startAB();
                                 6965   CLINEA 0000H 0001H 00D1H 0002H 000AH
00:007A 00 00                    6966   	mov	r0,	#00h
00:007C 11-90 E9-F8              6967   	st	r0,	0f8e9h
                                 6968   
                                 6969   ;;	tm_startAB();
                                 6970   CLINEA 0000H 0000H 00D2H 0002H 000BH
00:0080 80-A0 EB-F8              6971   	sb	0f8ebh.0
                                 6972   
                                 6973   ;;	timer = tm_getABCounter();
                                 6974   CLINEA 0000H 0000H 0120H 0002H 001BH
00:0084 10-90 E9-F8              6975   	l	r0,	0f8e9h
00:0088 00 01                    6976   	mov	r1,	#00h
00:008A 05-F2                    6977   	mov	er2,	er0
                                 6978   
                                 6979   ;;	timer = tm_getABCounter();
                                 6980   CLINEA 0000H 0000H 0121H 0002H 0014H
00:008C 10-90 ED-F8              6981   	l	r0,	0f8edh
00:0090 03-83                    6982   	or	r3,	r0
                                 6983   
                                 6984   ;;	timer = tm_getABCounter();
                                 6985   CLINEA 0000H 0000H 0122H 0002H 000CH
00:0092 25-F0                    6986   	mov	er0,	er2
                                 6987   
                                 6988   ;;	while(timer < timerThres){
                                 6989   CLINEA 0000H 0001H 0910H 0002H 001BH
00:0094 08 CE                    6990   	bal	_$L339
00:0096                          6991   _$L341 :
                                 6992   CBLOCK 196 9 2320
                                 6993   
                                 6994   ;;		timer = tm_getABCounter();
                                 6995   CLINEA 0000H 0000H 0120H 0002H 001BH
00:0096 10-90 E9-F8              6996   	l	r0,	0f8e9h
00:009A 00 01                    6997   	mov	r1,	#00h
00:009C 05-F2                    6998   	mov	er2,	er0
                                 6999   
                                 7000   ;;		timer = tm_getABCounter();
                                 7001   CLINEA 0000H 0000H 0121H 0002H 0014H
00:009E 10-90 ED-F8              7002   	l	r0,	0f8edh
00:00A2 03-83                    7003   	or	r3,	r0
                                 7004   
                                 7005   ;;		timer = tm_getABCounter();
                                 7006   CLINEA 0000H 0000H 0122H 0002H 000CH
00:00A4 25-F0                    7007   	mov	er0,	er2
                                 7008   
                                 7009   ;;		timer = tm_getABCounter();
                                 7010   CLINEA 0000H 0000H 0911H 0003H 001CH
                                 7011   CBLOCKEND 196 9 2323
                                 7012   
                                 7013   ;;	}
                                 7014   CLINEA 0000H 0000H 0913H 0002H 0002H
00:00A6                          7015   _$L339 :
                                 7016   
                                 7017   ;;	while(timer < timerThres){
                                 7018   CLINEA 0000H 0000H 0910H 0000H 0000H
00:00A6 C7-F0                    7019   	cmp	er0,	bp
00:00A8 F6 C1                    7020   	blt	_$L341
                                 7021   
                                 7022   ;;	if(TimeFlag !=0){
                                 7023   CLINEA 0000H 0001H 0914H 0002H 0012H
00:00AA 00 76                    7024   	cmp	r6,	#00h
00:00AC 05 C9                    7025   	beq	_$L344
                                 7026   
                                 7027   ;;		tm_stopAB();
                                 7028   CLINEA 0000H 0001H 0105H 0002H 000BH
00:00AE 82-A0 EB-F8              7029   	rb	0f8ebh.0
                                 7030   
                                 7031   ;;		TimeFlag--;
                                 7032   CLINEA 0000H 0000H 0916H 0003H 000DH
00:00B2 FF 16                    7033   	add	r6,	#0ffh
                                 7034   
                                 7035   ;;		timerThres = 0xFFFF;
                                 7036   CLINEA 0000H 0001H 0917H 0003H 0016H
00:00B4 7F EC                    7037   	mov	bp,	#-1
                                 7038   
                                 7039   ;;		goto TimerRestart;
                                 7040   CLINEA 0000H 0001H 0918H 0003H 0014H
00:00B6 DF CE                    7041   	bal	_$L336
                                 7042   
                                 7043   ;;	}
                                 7044   CLINEA 0000H 0000H 0919H 0002H 0002H
00:00B8                          7045   _$L344 :
                                 7046   CBLOCKEND 196 2 2330
                                 7047   
                                 7048   ;;}
                                 7049   CLINEA 0000H 0001H 091AH 0001H 0001H
00:00B8 1E-F8                    7050   	pop	er8
00:00BA 1E-FC                    7051   	pop	bp
00:00BC 2E-F4                    7052   	pop	xr4
00:00BE 8E-F2                    7053   	pop	pc
                                 7054   CBLOCKEND 196 1 2330
                                 7055   CFUNCTIONEND 196
                                 7056   
                                 7057   
  --------------------------     7058   	rseg $$ReverseBits$main
                                 7059   CFUNCTION 197
                                 7060   
00:0000                          7061   _ReverseBits	:
                                 7062   CBLOCK 197 1 2340
                                 7063   
                                 7064   ;;{
                                 7065   CLINEA 0000H 0001H 0924H 0001H 0001H
                                 7066   CBLOCK 197 2 2340
                                 7067   CARGUMENT 46H 0001H 0000H "data" 02H 00H 00H
                                 7068   
                                 7069   ;;");
                                 7070   CLINEA 0000H 0001H 0932H 0001H 0003H
                                 7071   
00:0000 00-81                    7072   	MOV r1,r0
00:0002 00 00                    7073   	MOV r0,#0
00:0004 08 02                    7074   	MOV r2,#8
00:0006                          7075   _ReverseBits_loop:
00:0006 1A-90                    7076   	SLL r0,#1
00:0008 1C-91                    7077   	SRL r1,#1
00:000A 01 C0                    7078   	BGE _ReverseBits_next
00:000C 01 30                    7079   	OR r0,#1
00:000E                          7080   _ReverseBits_next:
00:000E FF 12                    7081   	ADD	r2,	#0ffh
00:0010 00 72                    7082   	CMP	r2,	#00h
00:0012 F9 C2                    7083   	BGT _ReverseBits_loop
                                 7084   
                                 7085   CBLOCKEND 197 2 2355
                                 7086   
                                 7087   ;;}
                                 7088   CLINEA 0000H 0001H 0933H 0001H 0001H
00:0014 1F-FE                    7089   	rt
                                 7090   CBLOCKEND 197 1 2355
                                 7091   CFUNCTIONEND 197
                                 7092   
                                 7093   
  --------------------------     7094   	rseg $$FlashLEDs$main
                                 7095   CFUNCTION 198
                                 7096   
00:0000                          7097   _FlashLEDs	:
                                 7098   CBLOCK 198 1 2365
                                 7099   
                                 7100   ;;{
                                 7101   CLINEA 0000H 0001H 093DH 0001H 0001H
                                 7102   CBLOCK 198 2 2365
                                 7103   
                                 7104   ;;	if(LEDFlashFlag == 0){
                                 7105   CLINEA 0000H 0001H 093EH 0002H 0017H
00:0000 10-90 00-00'             7106   	l	r0,	NEAR _LEDFlashFlag
00:0004 0F C8                    7107   	bne	_$L349
                                 7108   CBLOCK 198 3 2366
                                 7109   
                                 7110   ;;		if(LEDChangeFlag == 0){
                                 7111   CLINEA 0000H 0001H 093FH 0003H 0019H
00:0006 10-90 00-00'             7112   	l	r0,	NEAR _LEDChangeFlag
00:000A 05 C8                    7113   	bne	_$L351
                                 7114   CBLOCK 198 4 2367
                                 7115   
                                 7116   ;;			LEDOUT(0xAA);
                                 7117   CLINEA 0000H 0001H 0940H 0004H 0010H
00:000C AA 00                    7118   	mov	r0,	#0aah
00:000E 11-90 60-F2              7119   	st	r0,	0f260h
                                 7120   
                                 7121   ;;			LEDChangeFlag = 1;
                                 7122   CLINEA 0000H 0001H 0941H 0004H 0015H
00:0012 01 00                    7123   	mov	r0,	#01h
                                 7124   CBLOCKEND 198 4 2370
                                 7125   
                                 7126   ;;		else{
                                 7127   CLINEA 0000H 0001H 0943H 0003H 0007H
00:0014 04 CE                    7128   	bal	_$L353
00:0016                          7129   _$L351 :
                                 7130   CBLOCK 198 5 2371
                                 7131   
                                 7132   ;;			LEDOUT(0x55);
                                 7133   CLINEA 0000H 0001H 0944H 0004H 0010H
00:0016 55 00                    7134   	mov	r0,	#055h
00:0018 11-90 60-F2              7135   	st	r0,	0f260h
                                 7136   
                                 7137   ;;			LEDChangeFlag = 0;
                                 7138   CLINEA 0000H 0001H 0945H 0004H 0015H
00:001C 00 00                    7139   	mov	r0,	#00h
                                 7140   CBLOCKEND 198 5 2374
                                 7141   
                                 7142   ;;		}
                                 7143   CLINEA 0000H 0000H 0946H 0003H 0003H
00:001E                          7144   _$L353 :
00:001E 11-90 00-00'             7145   	st	r0,	NEAR _LEDChangeFlag
                                 7146   CBLOCKEND 198 3 2375
                                 7147   
                                 7148   ;;	else{
                                 7149   CLINEA 0000H 0001H 0948H 0002H 0006H
00:0022 03 CE                    7150   	bal	_$L354
00:0024                          7151   _$L349 :
                                 7152   CBLOCK 198 6 2376
                                 7153   
                                 7154   ;;		LEDOUT(0x00);
                                 7155   CLINEA 0000H 0001H 0949H 0003H 000FH
00:0024 00 00                    7156   	mov	r0,	#00h
00:0026 11-90 60-F2              7157   	st	r0,	0f260h
                                 7158   CBLOCKEND 198 6 2378
                                 7159   
                                 7160   ;;	}
                                 7161   CLINEA 0000H 0000H 094AH 0002H 0002H
00:002A                          7162   _$L354 :
                                 7163   
                                 7164   ;;	LEDFlashFlag++;
                                 7165   CLINEA 0000H 0000H 094BH 0002H 0010H
00:002A 0C-F0 00-00'             7166   	lea	OFFSET _LEDFlashFlag
00:002E 2F-FE                    7167   	inc	[ea]
00:0030 10-90 00-00'             7168   	l	r0,	NEAR _LEDFlashFlag
                                 7169   
                                 7170   ;;	if(LEDFlashFlag >= 4){
                                 7171   CLINEA 0000H 0001H 094CH 0002H 0017H
00:0034 04 70                    7172   	cmp	r0,	#04h
00:0036 03 C1                    7173   	blt	_$L355
                                 7174   CBLOCK 198 7 2380
                                 7175   
                                 7176   ;;		LEDFlashFlag = 0;
                                 7177   CLINEA 0000H 0001H 094DH 0003H 0013H
00:0038 00 00                    7178   	mov	r0,	#00h
00:003A 11-90 00-00'             7179   	st	r0,	NEAR _LEDFlashFlag
                                 7180   CBLOCKEND 198 7 2382
                                 7181   
                                 7182   ;;	}
                                 7183   CLINEA 0000H 0000H 094EH 0002H 0002H
00:003E                          7184   _$L355 :
                                 7185   CBLOCKEND 198 2 2383
                                 7186   
                                 7187   ;;}
                                 7188   CLINEA 0000H 0001H 094FH 0001H 0001H
00:003E 1F-FE                    7189   	rt
                                 7190   CBLOCKEND 198 1 2383
                                 7191   CFUNCTIONEND 198
                                 7192   
                                 7193   	public _KX022_SELF_TEST
                                 7194   	public _Init_Hall_Effect_Sensors_1
                                 7195   	public _Init_Hall_Effect_Sensors_2
                                 7196   	public _BH1745_RED_DATA_LSBs
                                 7197   	public _BM1383GLV_ID
                                 7198   	public _KMX61_WUFC
                                 7199   	public _BH1780GLI_REG_PART_ID
                                 7200   	public _KXG03_I2C_ADDR
                                 7201   	public _BM1383GLV_SLEEP_SLP
                                 7202   	public _BH1730FVC_CMD_RESET_INT_OUT
                                 7203   	public _BH1745_RED_DATA_MSBs
                                 7204   	public _KX022_INT_REL
                                 7205   	public _BH1780GLI_REG_DATALOW
                                 7206   	public _RPR0521_I2C_ADDR
                                 7207   	public _Init_KXG03_Sensor_12
                                 7208   	public _BH1721FVC_CONT_A_RES_MOD
                                 7209   	public _BM1383GLV_RESET_CONTROL
                                 7210   	public _KXG03_GYRO_XOUT_L
                                 7211   	public _KXG03_GYRO_ZOUT_L
                                 7212   	public _BH1710FVC_CONT_H_RES_MOD
                                 7213   	public _KXG03_GYRO_XOUT_H
                                 7214   	public _KXG03_GYRO_ZOUT_H
                                 7215   	public _BH1721FVC_CONT_H_RES_MOD
                                 7216   	public _BH1745_INTERRUPT
                                 7217   	public _MainOp_Hall_Effect_Sensors_1
                                 7218   	public _MainOp_Hall_Effect_Sensors_2
                                 7219   	public _BH1730FVC_REG_THHHIGH
                                 7220   	public _BH1745_I2C_ADDR
                                 7221   	public _KMX61_TEMP_EN_CNTL_CFGDAT
                                 7222   	public _NOPms
                                 7223   	public _KMX61_CNTL1_CFGDAT
                                 7224   	public _KMX61_CNTL2_CFGDAT
                                 7225   	public _BM1383GLV_I2C_ADDR
                                 7226   	public _BH1780GLI_REG_DATAHIGH
                                 7227   	public _MainOp_Temperature_Sensor_20
                                 7228   	public _MainOp_Temperature_Sensor_21
                                 7229   	public _MainOp_Temperature_Sensor_22
                                 7230   	public _MainOp_Temperature_Sensor_23
                                 7231   	public _main_clrWDT
                                 7232   	public _KMX61_BTSC
                                 7233   	public _KMX61_ODCNTL
                                 7234   	public _KMX61_COTR
                                 7235   	public _main_reqNotHalt
                                 7236   	public _RPR0521_PS_ModeCTR_CFG
                                 7237   	public _KXG03_ODCTRL
                                 7238   	public _RPR0521_Prox_ModeCTR_CFG
                                 7239   	public _KX022_STAT
                                 7240   	public _MainOp_UV_Sensor_10
                                 7241   	public _Init_Color_Sensor_4
                                 7242   	public _KMX61_STATUS_REG
                                 7243   	public _BH1730FVC_REG_INTERRUPT
                                 7244   	public _RPR0521_ALS0_LSB
                                 7245   	public _KX022_XOUTL
                                 7246   	public _KX022_XOUTH
                                 7247   	public _RPR0521_ALS0_MSB
                                 7248   	public _KX022_BUF_READ
                                 7249   	public _KMX61_WUFTH
                                 7250   	public _KMX61_STBY_REG
                                 7251   	public _BH1710FVC_CONT_M_RES_MOD
                                 7252   	public _KX022_YHPL
                                 7253   	public _KMX62_CNTL2_CFG
                                 7254   	public _KX022_YHPH
                                 7255   	public _DeviceSelection
                                 7256   	public _KX022_I2C_ADDR
                                 7257   	public _KX022_CNTL1_CFGDAT
                                 7258   	public _KMX61_INC1
                                 7259   	public _KMX61_INC2
                                 7260   	public _KMX61_INC3
                                 7261   	public _KX022_XHPL
                                 7262   	public _KX022_CNTL3_CFGDAT
                                 7263   	public _KX022_XHPH
                                 7264   	public _Init_KX022
                                 7265   	public _BH17xxFVC_PWR_DOWN
                                 7266   	public _KMX61_ACCEL_YOUT_H
                                 7267   	public _BH1710FVC_CONT_L_RES_MOD
                                 7268   	public _KMX61_ACCEL_YOUT_L
                                 7269   	public _BH1721FVC_CONT_L_RES_MOD
                                 7270   	public _KMX61_INS1
                                 7271   	public _KMX61_INS2
                                 7272   	public _KX022_TDTC
                                 7273   	public _BH1780GLI_REG_MFG_ID
                                 7274   	public _RPR0521_ALS1_LSB
                                 7275   	public _RPR0521_ALS1_MSB
                                 7276   	public _KX022_ZHPL
                                 7277   	public _KX022_ZHPH
                                 7278   	public _KX022_TDTRC
                                 7279   	public _KMX61_MAG_YOUT_H
                                 7280   	public _KMX61_MAG_YOUT_L
                                 7281   	public _KMX62_MAG_XOUT_L
                                 7282   	public _MainOp_KMX61
                                 7283   	public _KX022_TILT_ANGLE_HL
                                 7284   	public _KX022_TILT_ANGLE_LL
                                 7285   	public _Init_Pressure_Sensor_3
                                 7286   	public _KMX61_BUF_THRESH_H
                                 7287   	public _KMX61_BUF_THRESH_L
                                 7288   	public _BH1730FVC_CMD_STOP_MIM
                                 7289   	public _KX022_ODCNTL
                                 7290   	public _BM1383GLV_MODE_CONTROL
                                 7291   	public _KMX61_BUF_CLEAR
                                 7292   	public _BM1383GLV_SLEEP
                                 7293   	public _KXG03_CTRL_REG1_CFDAT
                                 7294   	public _KXG03_CTRL_REG2_CFDAT
                                 7295   	public _BH1745_PERSISTENCE
                                 7296   	public _BM1383GLV_MODE_CONTROL_MODE
                                 7297   	public _Init_Temperature_Sensor_20
                                 7298   	public _Init_Temperature_Sensor_21
                                 7299   	public _Init_Temperature_Sensor_22
                                 7300   	public _main
                                 7301   	public _Init_Temperature_Sensor_23
                                 7302   	public _KXG03_ACC_XOUT_H
                                 7303   	public _KXG03_ACC_ZOUT_L
                                 7304   	public _Init_UV_Sensor_10
                                 7305   	public _KXG03_ACC_XOUT_L
                                 7306   	public _KXG03_ACC_ZOUT_H
                                 7307   	public _KX022_BUF_STATUS_1
                                 7308   	public _KX022_BUF_STATUS_2
                                 7309   	public _KX022_WHO_AM_I
                                 7310   	public _SensorInitialization
                                 7311   	public _BM1383GLV_PRESSURE_MSB
                                 7312   	public _BH1730FVC_REG_DATA1HIGH
                                 7313   	public _KX022_ZOUTL
                                 7314   	public _KX022_ZOUTH
                                 7315   	public _I2C_Write
                                 7316   	public _BM1383GLV_PRESSURE_LSB
                                 7317   	public _KX022_TSCP
                                 7318   	public _KMX61_ODCNTL_CFGDAT
                                 7319   	public _MainOp_KXG03_Sensor_12
                                 7320   	public _PortD_Low
                                 7321   	public _BM1383GLV_TEMPERATURE_LSB
                                 7322   	public _KX022_TSPP
                                 7323   	public _BH1730FVC_REG_TIMING
                                 7324   	public _BM1383GLV_TEMPERATURE_MSB
                                 7325   	public _RPR0521_ALS_ModeCTR_CFG
                                 7326   	public _KMX61_BTH
                                 7327   	public _KX022_TILT_TIMER_CFGDAT
                                 7328   	public _BH1730FVC_REG_ID
                                 7329   	public _KMX61_TEMP_EN_CNTL
                                 7330   	public _KMX61_CNTL1
                                 7331   	public _write
                                 7332   	public _KMX61_CNTL2
                                 7333   	public _KMX62_CNTL2
                                 7334   	public _KMX61_XOUT_HPF_L
                                 7335   	public _KMX61_XOUT_HPF_H
                                 7336   	public _KX022_BUF_CLEAR
                                 7337   	public _BH1710FVC_RESET
                                 7338   	public _BH1745_GREEN_DATA_LSBs
                                 7339   	public _BM1383GLV_MODE_CONTROL_REG
                                 7340   	public _BH1730FVC_REG_CONTROL
                                 7341   	public _KMX61_INL
                                 7342   	public _KX022_WUFC
                                 7343   	public _BH1730FVC_REG_DATA0HIGH
                                 7344   	public _KX022_YOUTL
                                 7345   	public _KXG03_GYRO_YOUT_L
                                 7346   	public _KX022_YOUTH
                                 7347   	public _KXG03_GYRO_YOUT_H
                                 7348   	public _BH17xxFVC_PWR_ON
                                 7349   	public _BH1745_GREEN_DATA_MSBs
                                 7350   	public _BH1710FVC_ONET_L_RES_MOD
                                 7351   	public _KMX61_ZOUT_HPF_L
                                 7352   	public _KX022_LP_CNTL
                                 7353   	public _KX022_ODCNTL_CFGDAT
                                 7354   	public _BH1730FVC_REG_THLHIGH
                                 7355   	public _KMX61_ZOUT_HPF_H
                                 7356   	public _PortC_Low
                                 7357   	public _KMX61_YOUT_HPF_L
                                 7358   	public _BH1730FVC_CMD_START_MIM
                                 7359   	public _KMX61_YOUT_HPF_H
                                 7360   	public _RPR0521_Prox_ModeCTR
                                 7361   	public _KX022_ATH
                                 7362   	public _KMX61_SN_1
                                 7363   	public _KMX61_SN_2
                                 7364   	public _KMX61_SN_3
                                 7365   	public _BH1745_MODE_CONTROL1
                                 7366   	public _BH1745_MODE_CONTROL2
                                 7367   	public _BH1745_MODE_CONTROL3
                                 7368   	public _KMX61_SN_4
                                 7369   	public _BH1780GLI_REG_CONTROL
                                 7370   	public _BM1383GLV_POWER_ON
                                 7371   	public _KX022_COTR
                                 7372   	public _RPR0521_PS_ModeCTR
                                 7373   	public _KMX61_SELF_TEST_CFGDAT
                                 7374   	public _Init_ALS_PROX_Sensor_11
                                 7375   	public _BH1745_SYSTEM_CONTROL
                                 7376   	public _BM1383GLV_POWER_DOWN
                                 7377   	public _PortB_Low
                                 7378   	public _KX022_FTD
                                 7379   	public _KX022_BUF_CNTL1
                                 7380   	public _KX022_BUF_CNTL2
                                 7381   	public _KMX61_I2C_ADDR
                                 7382   	public _RPR0521_ALS_ModeCTR
                                 7383   	public _KMX61_BUF_READ
                                 7384   	public _BH17xxFVC_ADDR_1
                                 7385   	public _BH17xxFVC_ADDR_2
                                 7386   	public _BH1730FVC_REG_THHLOW
                                 7387   	public _BH1710FVC_ONET_M_RES_MOD
                                 7388   	public _KX022_CNTL1
                                 7389   	public _KX022_CNTL2
                                 7390   	public _KX022_CNTL3
                                 7391   	public _KMX61_TEMP_OUT_H
                                 7392   	public _KMX61_TEMP_OUT_L
                                 7393   	public _MainOp_ALS_PROX_Sensor_11
                                 7394   	public _BM1383GLV_POWER_OFF
                                 7395   	public _KX022_STD
                                 7396   	public _KXG03_STBY_REG
                                 7397   	public _KMX61_ACCEL_XOUT_H
                                 7398   	public _KMX61_ACCEL_ZOUT_H
                                 7399   	public _BH1745_BLUE_DATA_MSBs
                                 7400   	public _KMX61_ACCEL_XOUT_L
                                 7401   	public _KMX61_ACCEL_ZOUT_L
                                 7402   	public _BH1710FVC_ONET_H_RES_MOD
                                 7403   	public _KMX61_BUF_CTRL2_CFGDAT
                                 7404   	public _I2C_Read
                                 7405   	public _ADC_Read
                                 7406   	public _KX022_INC1
                                 7407   	public _KX022_INC2
                                 7408   	public _KX022_INC3
                                 7409   	public _KMX61_BUF_CTRL1_CFGDAT
                                 7410   	public _KX022_INC4
                                 7411   	public _KX022_INC5
                                 7412   	public _BH1730FVC_REG_GAIN
                                 7413   	public _KX022_INC6
                                 7414   	public _KXG03_CTRL_REG1
                                 7415   	public _KXG03_CTRL_REG2
                                 7416   	public _KX022_TLT
                                 7417   	public _KMX61_BUF_CTRL1
                                 7418   	public _KMX61_BUF_CTRL2
                                 7419   	public _MainOp_KX022
                                 7420   	public _BH1745_BLUE_DATA_LSBs
                                 7421   	public _BH1730FVC_CMD_SW_RESET
                                 7422   	public _KXG03_STBY_SET
                                 7423   	public _KX022_TTH
                                 7424   	public _KXG03_ODCTRL_CFDAT
                                 7425   	public _Init_Ambient_Light_Sensor_5
                                 7426   	public _Init_Ambient_Light_Sensor_6
                                 7427   	public _Init_Ambient_Light_Sensor_7
                                 7428   	public _Init_Ambient_Light_Sensor_8
                                 7429   	public _KX022_TTL
                                 7430   	public _Init_Ambient_Light_Sensor_9
                                 7431   	public _KX022_INS1
                                 7432   	public _KX022_INS2
                                 7433   	public _KX022_INS3
                                 7434   	public _KX022_TWS
                                 7435   	public _KMX61_BUF_STATUS_L
                                 7436   	public _RPR0521_Manufact_ID
                                 7437   	public _BH1730FVC_REG_DATA0LOW
                                 7438   	public _PortA_Low
                                 7439   	public _KMX61_BUF_STATUS_H
                                 7440   	public _KMX61_MAG_XOUT_H
                                 7441   	public _KMX61_MAG_ZOUT_H
                                 7442   	public _KMX61_MAG_XOUT_L
                                 7443   	public _KMX61_MAG_ZOUT_L
                                 7444   	public _KMX61_SELF_TEST
                                 7445   	public _MainOp_Color_Sensor_4
                                 7446   	public _ReverseBits
                                 7447   	public _BH1730FVC_REG_THLLOW
                                 7448   	public _KX022_HYST_SET
                                 7449   	public _BM1383GLV_SLEEP_ACT
                                 7450   	public _KMX61_WHO_AM_I
                                 7451   	public _FlashLEDs
                                 7452   	public _KXG03_ACC_YOUT_L
                                 7453   	public _KXG03_ACC_YOUT_H
                                 7454   	public _Init_KMX61
                                 7455   	public _RPR0521_Prox_PS_LSB
                                 7456   	public _RPR0521_Prox_PS_MSB
                                 7457   	public _KX022_TILT_TIMER
                                 7458   	public _MainOp_Pressure_Sensor_3
                                 7459   	public _BH1730FVC_REG_DATA1LOW
                                 7460   	public _BM1383GLV_MODE_CONTROL_AVGN
                                 7461   	public _KMX61_BUF_STATUS_REG
                                 7462   	public _MainOp_Ambient_Light_Sensor_8
                                 7463   	public _MainOp_Ambient_Light_Sensor_9
                                 7464   	public _MainOp_Ambient_Light_Sensor_5
                                 7465   	public _MainOp_Ambient_Light_Sensor_6
                                 7466   	public _MainOp_Ambient_Light_Sensor_7
                                 7467   	public _BH1745_MANUFACTURER_ID
                                 7468   	__flgUartFin comm data 01h #00h
                                 7469   	_uniRawSensorOut comm data 06h #00h
                                 7470   	__flgI2CFin comm data 01h #00h
                                 7471   	__reqNotHalt comm data 01h #00h
                                 7472   	_flSensorOut comm data 0ch #00h
                                 7473   	__flgADCFin comm data 01h #00h
                                 7474   	extrn code near : _irq_init
                                 7475   	extrn code near : _uart_PortSet
                                 7476   	extrn code near : _i2c_stop
                                 7477   	extrn code near : _i2c_startReceive
                                 7478   	extrn code near : _uart_init
                                 7479   	extrn code near : _i2c_continue
                                 7480   	extrn code near : _irq_di
                                 7481   	extrn code near : _irq_ei
                                 7482   	extrn code near : _irq_setHdr
                                 7483   	extrn code near : _uart_stop
                                 7484   	extrn code near : _uart_startSend
                                 7485   	extrn code near : _printf_n
                                 7486   	extrn code near : _i2c_startSend
                                 7487   	extrn code near : _uart_continue
                                 7488   	extrn code near : _i2c_init
                                 7489   	extrn code near : _tm_init
                                 7490   	extrn code : $$start_up
                                 7491   
  --------------------------     7492   	cseg #00h at 02h
00:0002 00-00'                   7493   	dw	$$start_up
                                 7494   
  --------------------------     7495   	rseg $$NTABmain$main
00:0000                          7496   _$M1 :
00:0000 00-00'                   7497   	dw	_$S39
00:0002 00-00'                   7498   	dw	_$S40
00:0004 00-00'                   7499   	dw	_$L38
00:0006 00-00'                   7500   	dw	_$L38
00:0008 00-00'                   7501   	dw	_$S46
00:000A 00-00'                   7502   	dw	_$S47
00:000C 00-00'                   7503   	dw	_$S48
00:000E 00-00'                   7504   	dw	_$S49
00:0010 00-00'                   7505   	dw	_$S50
00:0012 00-00'                   7506   	dw	_$S51
00:0014 00-00'                   7507   	dw	_$L38
00:0016 00-00'                   7508   	dw	_$L38
00:0018 00-00'                   7509   	dw	_$L38
00:001A 00-00'                   7510   	dw	_$L38
00:001C 00-00'                   7511   	dw	_$S52
00:001E 00-00'                   7512   	dw	_$S53
00:0020 00-00'                   7513   	dw	_$L38
00:0022 00-00'                   7514   	dw	_$L38
00:0024 00-00'                   7515   	dw	_$L38
00:0026 00-00'                   7516   	dw	_$S54
00:0028 00-00'                   7517   	dw	_$S55
00:002A 00-00'                   7518   	dw	_$S56
00:002C 00-00'                   7519   	dw	_$S57
00:002E 00-00'                   7520   	dw	_$L38
00:0030 00-00'                   7521   	dw	_$L38
00:0032 00-00'                   7522   	dw	_$L38
00:0034 00-00'                   7523   	dw	_$L38
00:0036 00-00'                   7524   	dw	_$L38
00:0038 00-00'                   7525   	dw	_$L38
00:003A 00-00'                   7526   	dw	_$L38
00:003C 00-00'                   7527   	dw	_$L38
00:003E 00-00'                   7528   	dw	_$L38
00:0040 00-00'                   7529   	dw	_$L38
00:0042 00-00'                   7530   	dw	_$L38
00:0044 00-00'                   7531   	dw	_$L38
00:0046 00-00'                   7532   	dw	_$L38
00:0048 00-00'                   7533   	dw	_$L38
00:004A 00-00'                   7534   	dw	_$L38
00:004C 00-00'                   7535   	dw	_$L38
00:004E 00-00'                   7536   	dw	_$L38
00:0050 00-00'                   7537   	dw	_$L38
00:0052 00-00'                   7538   	dw	_$L38
00:0054 00-00'                   7539   	dw	_$L38
00:0056 00-00'                   7540   	dw	_$L38
00:0058 00-00'                   7541   	dw	_$L38
00:005A 00-00'                   7542   	dw	_$L38
00:005C 00-00'                   7543   	dw	_$L38
00:005E 00-00'                   7544   	dw	_$S41
00:0060 00-00'                   7545   	dw	_$S42
00:0062 00-00'                   7546   	dw	_$S43
00:0064 00-00'                   7547   	dw	_$L38
00:0066 00-00'                   7548   	dw	_$S45
00:0068 00-00'                   7549   	dw	_$L38
00:006A 00-00'                   7550   	dw	_$L38
00:006C 00-00'                   7551   	dw	_$L38
00:006E 00-00'                   7552   	dw	_$S44
                                 7553   
  --------------------------     7554   	rseg $$NTABADC_Read$main
00:0000                          7555   _$M9 :
00:0000 00-00'                   7556   	dw	_$S77
00:0002 00-00'                   7557   	dw	_$S78
00:0004 00-00'                   7558   	dw	_$S79
00:0006 00-00'                   7559   	dw	_$S80
00:0008 00-00'                   7560   	dw	_$S81
00:000A 00-00'                   7561   	dw	_$S82
00:000C 00-00'                   7562   	dw	_$S83
00:000E 00-00'                   7563   	dw	_$S84
                                 7564   
  --------------------------     7565   	rseg $$NTABSensorInitialization$main
00:0000                          7566   _$M15 :
00:0000 00-00'                   7567   	dw	_$S107
00:0002 00-00'                   7568   	dw	_$S108
00:0004 00-00'                   7569   	dw	_$L106
00:0006 00-00'                   7570   	dw	_$L106
00:0008 00-00'                   7571   	dw	_$S114
00:000A 00-00'                   7572   	dw	_$S115
00:000C 00-00'                   7573   	dw	_$S116
00:000E 00-00'                   7574   	dw	_$S117
00:0010 00-00'                   7575   	dw	_$S118
00:0012 00-00'                   7576   	dw	_$S119
00:0014 00-00'                   7577   	dw	_$L106
00:0016 00-00'                   7578   	dw	_$L106
00:0018 00-00'                   7579   	dw	_$L106
00:001A 00-00'                   7580   	dw	_$L106
00:001C 00-00'                   7581   	dw	_$S120
00:001E 00-00'                   7582   	dw	_$S121
00:0020 00-00'                   7583   	dw	_$L106
00:0022 00-00'                   7584   	dw	_$L106
00:0024 00-00'                   7585   	dw	_$L106
00:0026 00-00'                   7586   	dw	_$S122
00:0028 00-00'                   7587   	dw	_$S123
00:002A 00-00'                   7588   	dw	_$S124
00:002C 00-00'                   7589   	dw	_$S125
00:002E 00-00'                   7590   	dw	_$L106
00:0030 00-00'                   7591   	dw	_$L106
00:0032 00-00'                   7592   	dw	_$L106
00:0034 00-00'                   7593   	dw	_$L106
00:0036 00-00'                   7594   	dw	_$L106
00:0038 00-00'                   7595   	dw	_$L106
00:003A 00-00'                   7596   	dw	_$L106
00:003C 00-00'                   7597   	dw	_$L106
00:003E 00-00'                   7598   	dw	_$L106
00:0040 00-00'                   7599   	dw	_$L106
00:0042 00-00'                   7600   	dw	_$L106
00:0044 00-00'                   7601   	dw	_$L106
00:0046 00-00'                   7602   	dw	_$L106
00:0048 00-00'                   7603   	dw	_$L106
00:004A 00-00'                   7604   	dw	_$L106
00:004C 00-00'                   7605   	dw	_$L106
00:004E 00-00'                   7606   	dw	_$L106
00:0050 00-00'                   7607   	dw	_$L106
00:0052 00-00'                   7608   	dw	_$L106
00:0054 00-00'                   7609   	dw	_$L106
00:0056 00-00'                   7610   	dw	_$L106
00:0058 00-00'                   7611   	dw	_$L106
00:005A 00-00'                   7612   	dw	_$L106
00:005C 00-00'                   7613   	dw	_$L106
00:005E 00-00'                   7614   	dw	_$S109
00:0060 00-00'                   7615   	dw	_$S110
00:0062 00-00'                   7616   	dw	_$S111
00:0064 00-00'                   7617   	dw	_$L106
00:0066 00-00'                   7618   	dw	_$S113
00:0068 00-00'                   7619   	dw	_$L106
00:006A 00-00'                   7620   	dw	_$L106
00:006C 00-00'                   7621   	dw	_$L106
00:006E 00-00'                   7622   	dw	_$S112
                                 7623   
  --------------------------     7624   	rseg $$NINITTAB
??:0000 01                       7625   	db	01h
??:0001 00                       7626   	db	00h
??:0002 00                       7627   	db	00h
                                 7628   
  --------------------------     7629   	rseg $$TAB_uartSetParam$main
00:0000                          7630   __uartSetParam :
00:0000 00-C2                    7631   	dw	0c200h
00:0002 01-00                    7632   	dw	01h
00:0004 00                       7633   	db	00h
00:0005 02                       7634   	db	02h
00:0006 00                       7635   	db	00h
00:0007 00                       7636   	db	00h
00:0008 00                       7637   	db	00h
00:0009 00                       7638   	align
                                 7639   
  --------------------------     7640   	rseg $$TABBH17xxFVC_ADDR_1$main
00:0000                          7641   _BH17xxFVC_ADDR_1 :
00:0000 23                       7642   	db	023h
                                 7643   
  --------------------------     7644   	rseg $$TABBH17xxFVC_ADDR_2$main
00:0000                          7645   _BH17xxFVC_ADDR_2 :
00:0000 29                       7646   	db	029h
                                 7647   
  --------------------------     7648   	rseg $$TABBH17xxFVC_PWR_DOWN$main
00:0000                          7649   _BH17xxFVC_PWR_DOWN :
00:0000 00                       7650   	db	00h
                                 7651   
  --------------------------     7652   	rseg $$TABBH17xxFVC_PWR_ON$main
00:0000                          7653   _BH17xxFVC_PWR_ON :
00:0000 01                       7654   	db	01h
                                 7655   
  --------------------------     7656   	rseg $$TABBH1710FVC_RESET$main
00:0000                          7657   _BH1710FVC_RESET :
00:0000 07                       7658   	db	07h
                                 7659   
  --------------------------     7660   	rseg $$TABBH1710FVC_CONT_H_RES_MOD$main
00:0000                          7661   _BH1710FVC_CONT_H_RES_MOD :
00:0000 10                       7662   	db	010h
                                 7663   
  --------------------------     7664   	rseg $$TABBH1710FVC_CONT_M_RES_MOD$main
00:0000                          7665   _BH1710FVC_CONT_M_RES_MOD :
00:0000 13                       7666   	db	013h
                                 7667   
  --------------------------     7668   	rseg $$TABBH1710FVC_CONT_L_RES_MOD$main
00:0000                          7669   _BH1710FVC_CONT_L_RES_MOD :
00:0000 16                       7670   	db	016h
                                 7671   
  --------------------------     7672   	rseg $$TABBH1710FVC_ONET_H_RES_MOD$main
00:0000                          7673   _BH1710FVC_ONET_H_RES_MOD :
00:0000 20                       7674   	db	020h
                                 7675   
  --------------------------     7676   	rseg $$TABBH1710FVC_ONET_M_RES_MOD$main
00:0000                          7677   _BH1710FVC_ONET_M_RES_MOD :
00:0000 23                       7678   	db	023h
                                 7679   
  --------------------------     7680   	rseg $$TABBH1710FVC_ONET_L_RES_MOD$main
00:0000                          7681   _BH1710FVC_ONET_L_RES_MOD :
00:0000 26                       7682   	db	026h
                                 7683   
  --------------------------     7684   	rseg $$TABBH1721FVC_CONT_A_RES_MOD$main
00:0000                          7685   _BH1721FVC_CONT_A_RES_MOD :
00:0000 10                       7686   	db	010h
                                 7687   
  --------------------------     7688   	rseg $$TABBH1721FVC_CONT_H_RES_MOD$main
00:0000                          7689   _BH1721FVC_CONT_H_RES_MOD :
00:0000 12                       7690   	db	012h
                                 7691   
  --------------------------     7692   	rseg $$TABBH1721FVC_CONT_L_RES_MOD$main
00:0000                          7693   _BH1721FVC_CONT_L_RES_MOD :
00:0000 13                       7694   	db	013h
                                 7695   
  --------------------------     7696   	rseg $$TABBH1730FVC_REG_CONTROL$main
00:0000                          7697   _BH1730FVC_REG_CONTROL :
00:0000 80                       7698   	db	080h
                                 7699   
  --------------------------     7700   	rseg $$TABBH1730FVC_REG_TIMING$main
00:0000                          7701   _BH1730FVC_REG_TIMING :
00:0000 81                       7702   	db	081h
                                 7703   
  --------------------------     7704   	rseg $$TABBH1730FVC_REG_INTERRUPT$main
00:0000                          7705   _BH1730FVC_REG_INTERRUPT :
00:0000 82                       7706   	db	082h
                                 7707   
  --------------------------     7708   	rseg $$TABBH1730FVC_REG_THLLOW$main
00:0000                          7709   _BH1730FVC_REG_THLLOW :
00:0000 83                       7710   	db	083h
                                 7711   
  --------------------------     7712   	rseg $$TABBH1730FVC_REG_THLHIGH$main
00:0000                          7713   _BH1730FVC_REG_THLHIGH :
00:0000 84                       7714   	db	084h
                                 7715   
  --------------------------     7716   	rseg $$TABBH1730FVC_REG_THHLOW$main
00:0000                          7717   _BH1730FVC_REG_THHLOW :
00:0000 85                       7718   	db	085h
                                 7719   
  --------------------------     7720   	rseg $$TABBH1730FVC_REG_THHHIGH$main
00:0000                          7721   _BH1730FVC_REG_THHHIGH :
00:0000 86                       7722   	db	086h
                                 7723   
  --------------------------     7724   	rseg $$TABBH1730FVC_REG_GAIN$main
00:0000                          7725   _BH1730FVC_REG_GAIN :
00:0000 87                       7726   	db	087h
                                 7727   
  --------------------------     7728   	rseg $$TABBH1730FVC_REG_ID$main
00:0000                          7729   _BH1730FVC_REG_ID :
00:0000 92                       7730   	db	092h
                                 7731   
  --------------------------     7732   	rseg $$TABBH1730FVC_REG_DATA0LOW$main
00:0000                          7733   _BH1730FVC_REG_DATA0LOW :
00:0000 94                       7734   	db	094h
                                 7735   
  --------------------------     7736   	rseg $$TABBH1730FVC_REG_DATA0HIGH$main
00:0000                          7737   _BH1730FVC_REG_DATA0HIGH :
00:0000 95                       7738   	db	095h
                                 7739   
  --------------------------     7740   	rseg $$TABBH1730FVC_REG_DATA1LOW$main
00:0000                          7741   _BH1730FVC_REG_DATA1LOW :
00:0000 96                       7742   	db	096h
                                 7743   
  --------------------------     7744   	rseg $$TABBH1730FVC_REG_DATA1HIGH$main
00:0000                          7745   _BH1730FVC_REG_DATA1HIGH :
00:0000 97                       7746   	db	097h
                                 7747   
  --------------------------     7748   	rseg $$TABBH1730FVC_CMD_RESET_INT_OUT$main
00:0000                          7749   _BH1730FVC_CMD_RESET_INT_OUT :
00:0000 E1                       7750   	db	0e1h
                                 7751   
  --------------------------     7752   	rseg $$TABBH1730FVC_CMD_STOP_MIM$main
00:0000                          7753   _BH1730FVC_CMD_STOP_MIM :
00:0000 E2                       7754   	db	0e2h
                                 7755   
  --------------------------     7756   	rseg $$TABBH1730FVC_CMD_START_MIM$main
00:0000                          7757   _BH1730FVC_CMD_START_MIM :
00:0000 E3                       7758   	db	0e3h
                                 7759   
  --------------------------     7760   	rseg $$TABBH1730FVC_CMD_SW_RESET$main
00:0000                          7761   _BH1730FVC_CMD_SW_RESET :
00:0000 E4                       7762   	db	0e4h
                                 7763   
  --------------------------     7764   	rseg $$TABBH1780GLI_REG_CONTROL$main
00:0000                          7765   _BH1780GLI_REG_CONTROL :
00:0000 80                       7766   	db	080h
                                 7767   
  --------------------------     7768   	rseg $$TABBH1780GLI_REG_PART_ID$main
00:0000                          7769   _BH1780GLI_REG_PART_ID :
00:0000 8A                       7770   	db	08ah
                                 7771   
  --------------------------     7772   	rseg $$TABBH1780GLI_REG_MFG_ID$main
00:0000                          7773   _BH1780GLI_REG_MFG_ID :
00:0000 8B                       7774   	db	08bh
                                 7775   
  --------------------------     7776   	rseg $$TABBH1780GLI_REG_DATALOW$main
00:0000                          7777   _BH1780GLI_REG_DATALOW :
00:0000 8C                       7778   	db	08ch
                                 7779   
  --------------------------     7780   	rseg $$TABBH1780GLI_REG_DATAHIGH$main
00:0000                          7781   _BH1780GLI_REG_DATAHIGH :
00:0000 8D                       7782   	db	08dh
                                 7783   
  --------------------------     7784   	rseg $$TABKX022_I2C_ADDR$main
00:0000                          7785   _KX022_I2C_ADDR :
00:0000 1E                       7786   	db	01eh
                                 7787   
  --------------------------     7788   	rseg $$TABKX022_XHPL$main
00:0000                          7789   _KX022_XHPL :
00:0000 00                       7790   	db	00h
                                 7791   
  --------------------------     7792   	rseg $$TABKX022_XHPH$main
00:0000                          7793   _KX022_XHPH :
00:0000 01                       7794   	db	01h
                                 7795   
  --------------------------     7796   	rseg $$TABKX022_YHPL$main
00:0000                          7797   _KX022_YHPL :
00:0000 02                       7798   	db	02h
                                 7799   
  --------------------------     7800   	rseg $$TABKX022_YHPH$main
00:0000                          7801   _KX022_YHPH :
00:0000 03                       7802   	db	03h
                                 7803   
  --------------------------     7804   	rseg $$TABKX022_ZHPL$main
00:0000                          7805   _KX022_ZHPL :
00:0000 04                       7806   	db	04h
                                 7807   
  --------------------------     7808   	rseg $$TABKX022_ZHPH$main
00:0000                          7809   _KX022_ZHPH :
00:0000 05                       7810   	db	05h
                                 7811   
  --------------------------     7812   	rseg $$TABKX022_XOUTL$main
00:0000                          7813   _KX022_XOUTL :
00:0000 06                       7814   	db	06h
                                 7815   
  --------------------------     7816   	rseg $$TABKX022_XOUTH$main
00:0000                          7817   _KX022_XOUTH :
00:0000 07                       7818   	db	07h
                                 7819   
  --------------------------     7820   	rseg $$TABKX022_YOUTL$main
00:0000                          7821   _KX022_YOUTL :
00:0000 08                       7822   	db	08h
                                 7823   
  --------------------------     7824   	rseg $$TABKX022_YOUTH$main
00:0000                          7825   _KX022_YOUTH :
00:0000 09                       7826   	db	09h
                                 7827   
  --------------------------     7828   	rseg $$TABKX022_ZOUTL$main
00:0000                          7829   _KX022_ZOUTL :
00:0000 0A                       7830   	db	0ah
                                 7831   
  --------------------------     7832   	rseg $$TABKX022_ZOUTH$main
00:0000                          7833   _KX022_ZOUTH :
00:0000 0B                       7834   	db	0bh
                                 7835   
  --------------------------     7836   	rseg $$TABKX022_COTR$main
00:0000                          7837   _KX022_COTR :
00:0000 0C                       7838   	db	0ch
                                 7839   
  --------------------------     7840   	rseg $$TABKX022_WHO_AM_I$main
00:0000                          7841   _KX022_WHO_AM_I :
00:0000 0F                       7842   	db	0fh
                                 7843   
  --------------------------     7844   	rseg $$TABKX022_TSCP$main
00:0000                          7845   _KX022_TSCP :
00:0000 10                       7846   	db	010h
                                 7847   
  --------------------------     7848   	rseg $$TABKX022_TSPP$main
00:0000                          7849   _KX022_TSPP :
00:0000 11                       7850   	db	011h
                                 7851   
  --------------------------     7852   	rseg $$TABKX022_INS1$main
00:0000                          7853   _KX022_INS1 :
00:0000 12                       7854   	db	012h
                                 7855   
  --------------------------     7856   	rseg $$TABKX022_INS2$main
00:0000                          7857   _KX022_INS2 :
00:0000 13                       7858   	db	013h
                                 7859   
  --------------------------     7860   	rseg $$TABKX022_INS3$main
00:0000                          7861   _KX022_INS3 :
00:0000 14                       7862   	db	014h
                                 7863   
  --------------------------     7864   	rseg $$TABKX022_STAT$main
00:0000                          7865   _KX022_STAT :
00:0000 15                       7866   	db	015h
                                 7867   
  --------------------------     7868   	rseg $$TABKX022_INT_REL$main
00:0000                          7869   _KX022_INT_REL :
00:0000 17                       7870   	db	017h
                                 7871   
  --------------------------     7872   	rseg $$TABKX022_CNTL1$main
00:0000                          7873   _KX022_CNTL1 :
00:0000 18                       7874   	db	018h
                                 7875   
  --------------------------     7876   	rseg $$TABKX022_CNTL2$main
00:0000                          7877   _KX022_CNTL2 :
00:0000 19                       7878   	db	019h
                                 7879   
  --------------------------     7880   	rseg $$TABKX022_CNTL3$main
00:0000                          7881   _KX022_CNTL3 :
00:0000 1A                       7882   	db	01ah
                                 7883   
  --------------------------     7884   	rseg $$TABKX022_ODCNTL$main
00:0000                          7885   _KX022_ODCNTL :
00:0000 1B                       7886   	db	01bh
                                 7887   
  --------------------------     7888   	rseg $$TABKX022_INC1$main
00:0000                          7889   _KX022_INC1 :
00:0000 1C                       7890   	db	01ch
                                 7891   
  --------------------------     7892   	rseg $$TABKX022_INC2$main
00:0000                          7893   _KX022_INC2 :
00:0000 1D                       7894   	db	01dh
                                 7895   
  --------------------------     7896   	rseg $$TABKX022_INC3$main
00:0000                          7897   _KX022_INC3 :
00:0000 1E                       7898   	db	01eh
                                 7899   
  --------------------------     7900   	rseg $$TABKX022_INC4$main
00:0000                          7901   _KX022_INC4 :
00:0000 1F                       7902   	db	01fh
                                 7903   
  --------------------------     7904   	rseg $$TABKX022_INC5$main
00:0000                          7905   _KX022_INC5 :
00:0000 20                       7906   	db	020h
                                 7907   
  --------------------------     7908   	rseg $$TABKX022_INC6$main
00:0000                          7909   _KX022_INC6 :
00:0000 21                       7910   	db	021h
                                 7911   
  --------------------------     7912   	rseg $$TABKX022_TILT_TIMER$main
00:0000                          7913   _KX022_TILT_TIMER :
00:0000 22                       7914   	db	022h
                                 7915   
  --------------------------     7916   	rseg $$TABKX022_WUFC$main
00:0000                          7917   _KX022_WUFC :
00:0000 23                       7918   	db	023h
                                 7919   
  --------------------------     7920   	rseg $$TABKX022_TDTRC$main
00:0000                          7921   _KX022_TDTRC :
00:0000 24                       7922   	db	024h
                                 7923   
  --------------------------     7924   	rseg $$TABKX022_TDTC$main
00:0000                          7925   _KX022_TDTC :
00:0000 25                       7926   	db	025h
                                 7927   
  --------------------------     7928   	rseg $$TABKX022_TTH$main
00:0000                          7929   _KX022_TTH :
00:0000 26                       7930   	db	026h
                                 7931   
  --------------------------     7932   	rseg $$TABKX022_TTL$main
00:0000                          7933   _KX022_TTL :
00:0000 27                       7934   	db	027h
                                 7935   
  --------------------------     7936   	rseg $$TABKX022_FTD$main
00:0000                          7937   _KX022_FTD :
00:0000 28                       7938   	db	028h
                                 7939   
  --------------------------     7940   	rseg $$TABKX022_STD$main
00:0000                          7941   _KX022_STD :
00:0000 29                       7942   	db	029h
                                 7943   
  --------------------------     7944   	rseg $$TABKX022_TLT$main
00:0000                          7945   _KX022_TLT :
00:0000 2A                       7946   	db	02ah
                                 7947   
  --------------------------     7948   	rseg $$TABKX022_TWS$main
00:0000                          7949   _KX022_TWS :
00:0000 2B                       7950   	db	02bh
                                 7951   
  --------------------------     7952   	rseg $$TABKX022_ATH$main
00:0000                          7953   _KX022_ATH :
00:0000 30                       7954   	db	030h
                                 7955   
  --------------------------     7956   	rseg $$TABKX022_TILT_ANGLE_LL$main
00:0000                          7957   _KX022_TILT_ANGLE_LL :
00:0000 32                       7958   	db	032h
                                 7959   
  --------------------------     7960   	rseg $$TABKX022_TILT_ANGLE_HL$main
00:0000                          7961   _KX022_TILT_ANGLE_HL :
00:0000 33                       7962   	db	033h
                                 7963   
  --------------------------     7964   	rseg $$TABKX022_HYST_SET$main
00:0000                          7965   _KX022_HYST_SET :
00:0000 34                       7966   	db	034h
                                 7967   
  --------------------------     7968   	rseg $$TABKX022_LP_CNTL$main
00:0000                          7969   _KX022_LP_CNTL :
00:0000 35                       7970   	db	035h
                                 7971   
  --------------------------     7972   	rseg $$TABKX022_BUF_CNTL1$main
00:0000                          7973   _KX022_BUF_CNTL1 :
00:0000 3A                       7974   	db	03ah
                                 7975   
  --------------------------     7976   	rseg $$TABKX022_BUF_CNTL2$main
00:0000                          7977   _KX022_BUF_CNTL2 :
00:0000 3B                       7978   	db	03bh
                                 7979   
  --------------------------     7980   	rseg $$TABKX022_BUF_STATUS_1$main
00:0000                          7981   _KX022_BUF_STATUS_1 :
00:0000 3C                       7982   	db	03ch
                                 7983   
  --------------------------     7984   	rseg $$TABKX022_BUF_STATUS_2$main
00:0000                          7985   _KX022_BUF_STATUS_2 :
00:0000 3D                       7986   	db	03dh
                                 7987   
  --------------------------     7988   	rseg $$TABKX022_BUF_CLEAR$main
00:0000                          7989   _KX022_BUF_CLEAR :
00:0000 3E                       7990   	db	03eh
                                 7991   
  --------------------------     7992   	rseg $$TABKX022_BUF_READ$main
00:0000                          7993   _KX022_BUF_READ :
00:0000 3F                       7994   	db	03fh
                                 7995   
  --------------------------     7996   	rseg $$TABKX022_SELF_TEST$main
00:0000                          7997   _KX022_SELF_TEST :
00:0000 60                       7998   	db	060h
                                 7999   
  --------------------------     8000   	rseg $$TABKX022_CNTL1_CFGDAT$main
00:0000                          8001   _KX022_CNTL1_CFGDAT :
00:0000 41                       8002   	db	041h
                                 8003   
  --------------------------     8004   	rseg $$TABKX022_ODCNTL_CFGDAT$main
00:0000                          8005   _KX022_ODCNTL_CFGDAT :
00:0000 02                       8006   	db	02h
                                 8007   
  --------------------------     8008   	rseg $$TABKX022_CNTL3_CFGDAT$main
00:0000                          8009   _KX022_CNTL3_CFGDAT :
00:0000 D8                       8010   	db	0d8h
                                 8011   
  --------------------------     8012   	rseg $$TABKX022_TILT_TIMER_CFGDAT$main
00:0000                          8013   _KX022_TILT_TIMER_CFGDAT :
00:0000 01                       8014   	db	01h
                                 8015   
  --------------------------     8016   	rseg $$TABKMX61_I2C_ADDR$main
00:0000                          8017   _KMX61_I2C_ADDR :
00:0000 0E                       8018   	db	0eh
                                 8019   
  --------------------------     8020   	rseg $$TABKMX61_WHO_AM_I$main
00:0000                          8021   _KMX61_WHO_AM_I :
00:0000 00                       8022   	db	00h
                                 8023   
  --------------------------     8024   	rseg $$TABKMX61_INS1$main
00:0000                          8025   _KMX61_INS1 :
00:0000 01                       8026   	db	01h
                                 8027   
  --------------------------     8028   	rseg $$TABKMX61_INS2$main
00:0000                          8029   _KMX61_INS2 :
00:0000 02                       8030   	db	02h
                                 8031   
  --------------------------     8032   	rseg $$TABKMX61_STATUS_REG$main
00:0000                          8033   _KMX61_STATUS_REG :
00:0000 03                       8034   	db	03h
                                 8035   
  --------------------------     8036   	rseg $$TABKMX61_ACCEL_XOUT_L$main
00:0000                          8037   _KMX61_ACCEL_XOUT_L :
00:0000 0A                       8038   	db	0ah
                                 8039   
  --------------------------     8040   	rseg $$TABKMX61_ACCEL_XOUT_H$main
00:0000                          8041   _KMX61_ACCEL_XOUT_H :
00:0000 0B                       8042   	db	0bh
                                 8043   
  --------------------------     8044   	rseg $$TABKMX61_ACCEL_YOUT_L$main
00:0000                          8045   _KMX61_ACCEL_YOUT_L :
00:0000 0C                       8046   	db	0ch
                                 8047   
  --------------------------     8048   	rseg $$TABKMX61_ACCEL_YOUT_H$main
00:0000                          8049   _KMX61_ACCEL_YOUT_H :
00:0000 0D                       8050   	db	0dh
                                 8051   
  --------------------------     8052   	rseg $$TABKMX61_ACCEL_ZOUT_L$main
00:0000                          8053   _KMX61_ACCEL_ZOUT_L :
00:0000 0E                       8054   	db	0eh
                                 8055   
  --------------------------     8056   	rseg $$TABKMX61_ACCEL_ZOUT_H$main
00:0000                          8057   _KMX61_ACCEL_ZOUT_H :
00:0000 0F                       8058   	db	0fh
                                 8059   
  --------------------------     8060   	rseg $$TABKMX61_TEMP_OUT_L$main
00:0000                          8061   _KMX61_TEMP_OUT_L :
00:0000 10                       8062   	db	010h
                                 8063   
  --------------------------     8064   	rseg $$TABKMX61_TEMP_OUT_H$main
00:0000                          8065   _KMX61_TEMP_OUT_H :
00:0000 11                       8066   	db	011h
                                 8067   
  --------------------------     8068   	rseg $$TABKMX61_MAG_XOUT_L$main
00:0000                          8069   _KMX61_MAG_XOUT_L :
00:0000 12                       8070   	db	012h
                                 8071   
  --------------------------     8072   	rseg $$TABKMX62_MAG_XOUT_L$main
00:0000                          8073   _KMX62_MAG_XOUT_L :
00:0000 10                       8074   	db	010h
                                 8075   
  --------------------------     8076   	rseg $$TABKMX61_MAG_XOUT_H$main
00:0000                          8077   _KMX61_MAG_XOUT_H :
00:0000 13                       8078   	db	013h
                                 8079   
  --------------------------     8080   	rseg $$TABKMX61_MAG_YOUT_L$main
00:0000                          8081   _KMX61_MAG_YOUT_L :
00:0000 14                       8082   	db	014h
                                 8083   
  --------------------------     8084   	rseg $$TABKMX61_MAG_YOUT_H$main
00:0000                          8085   _KMX61_MAG_YOUT_H :
00:0000 15                       8086   	db	015h
                                 8087   
  --------------------------     8088   	rseg $$TABKMX61_MAG_ZOUT_L$main
00:0000                          8089   _KMX61_MAG_ZOUT_L :
00:0000 16                       8090   	db	016h
                                 8091   
  --------------------------     8092   	rseg $$TABKMX61_MAG_ZOUT_H$main
00:0000                          8093   _KMX61_MAG_ZOUT_H :
00:0000 17                       8094   	db	017h
                                 8095   
  --------------------------     8096   	rseg $$TABKMX61_XOUT_HPF_L$main
00:0000                          8097   _KMX61_XOUT_HPF_L :
00:0000 18                       8098   	db	018h
                                 8099   
  --------------------------     8100   	rseg $$TABKMX61_XOUT_HPF_H$main
00:0000                          8101   _KMX61_XOUT_HPF_H :
00:0000 19                       8102   	db	019h
                                 8103   
  --------------------------     8104   	rseg $$TABKMX61_YOUT_HPF_L$main
00:0000                          8105   _KMX61_YOUT_HPF_L :
00:0000 1A                       8106   	db	01ah
                                 8107   
  --------------------------     8108   	rseg $$TABKMX61_YOUT_HPF_H$main
00:0000                          8109   _KMX61_YOUT_HPF_H :
00:0000 1B                       8110   	db	01bh
                                 8111   
  --------------------------     8112   	rseg $$TABKMX61_ZOUT_HPF_L$main
00:0000                          8113   _KMX61_ZOUT_HPF_L :
00:0000 1C                       8114   	db	01ch
                                 8115   
  --------------------------     8116   	rseg $$TABKMX61_ZOUT_HPF_H$main
00:0000                          8117   _KMX61_ZOUT_HPF_H :
00:0000 1D                       8118   	db	01dh
                                 8119   
  --------------------------     8120   	rseg $$TABKMX61_SN_1$main
00:0000                          8121   _KMX61_SN_1 :
00:0000 24                       8122   	db	024h
                                 8123   
  --------------------------     8124   	rseg $$TABKMX61_SN_2$main
00:0000                          8125   _KMX61_SN_2 :
00:0000 25                       8126   	db	025h
                                 8127   
  --------------------------     8128   	rseg $$TABKMX61_SN_3$main
00:0000                          8129   _KMX61_SN_3 :
00:0000 26                       8130   	db	026h
                                 8131   
  --------------------------     8132   	rseg $$TABKMX61_SN_4$main
00:0000                          8133   _KMX61_SN_4 :
00:0000 27                       8134   	db	027h
                                 8135   
  --------------------------     8136   	rseg $$TABKMX61_INL$main
00:0000                          8137   _KMX61_INL :
00:0000 28                       8138   	db	028h
                                 8139   
  --------------------------     8140   	rseg $$TABKMX61_STBY_REG$main
00:0000                          8141   _KMX61_STBY_REG :
00:0000 29                       8142   	db	029h
                                 8143   
  --------------------------     8144   	rseg $$TABKMX61_CNTL1$main
00:0000                          8145   _KMX61_CNTL1 :
00:0000 2A                       8146   	db	02ah
                                 8147   
  --------------------------     8148   	rseg $$TABKMX61_CNTL2$main
00:0000                          8149   _KMX61_CNTL2 :
00:0000 2B                       8150   	db	02bh
                                 8151   
  --------------------------     8152   	rseg $$TABKMX61_ODCNTL$main
00:0000                          8153   _KMX61_ODCNTL :
00:0000 2C                       8154   	db	02ch
                                 8155   
  --------------------------     8156   	rseg $$TABKMX61_INC1$main
00:0000                          8157   _KMX61_INC1 :
00:0000 2D                       8158   	db	02dh
                                 8159   
  --------------------------     8160   	rseg $$TABKMX61_INC2$main
00:0000                          8161   _KMX61_INC2 :
00:0000 2E                       8162   	db	02eh
                                 8163   
  --------------------------     8164   	rseg $$TABKMX61_INC3$main
00:0000                          8165   _KMX61_INC3 :
00:0000 2F                       8166   	db	02fh
                                 8167   
  --------------------------     8168   	rseg $$TABKMX61_COTR$main
00:0000                          8169   _KMX61_COTR :
00:0000 3C                       8170   	db	03ch
                                 8171   
  --------------------------     8172   	rseg $$TABKMX62_CNTL2$main
00:0000                          8173   _KMX62_CNTL2 :
00:0000 3A                       8174   	db	03ah
                                 8175   
  --------------------------     8176   	rseg $$TABKMX62_CNTL2_CFG$main
00:0000                          8177   _KMX62_CNTL2_CFG :
00:0000 5F                       8178   	db	05fh
                                 8179   
  --------------------------     8180   	rseg $$TABKMX61_WUFTH$main
00:0000                          8181   _KMX61_WUFTH :
00:0000 3D                       8182   	db	03dh
                                 8183   
  --------------------------     8184   	rseg $$TABKMX61_WUFC$main
00:0000                          8185   _KMX61_WUFC :
00:0000 3E                       8186   	db	03eh
                                 8187   
  --------------------------     8188   	rseg $$TABKMX61_BTH$main
00:0000                          8189   _KMX61_BTH :
00:0000 3F                       8190   	db	03fh
                                 8191   
  --------------------------     8192   	rseg $$TABKMX61_BTSC$main
00:0000                          8193   _KMX61_BTSC :
00:0000 40                       8194   	db	040h
                                 8195   
  --------------------------     8196   	rseg $$TABKMX61_TEMP_EN_CNTL$main
00:0000                          8197   _KMX61_TEMP_EN_CNTL :
00:0000 4C                       8198   	db	04ch
                                 8199   
  --------------------------     8200   	rseg $$TABKMX61_SELF_TEST$main
00:0000                          8201   _KMX61_SELF_TEST :
00:0000 60                       8202   	db	060h
                                 8203   
  --------------------------     8204   	rseg $$TABKMX61_BUF_THRESH_H$main
00:0000                          8205   _KMX61_BUF_THRESH_H :
00:0000 76                       8206   	db	076h
                                 8207   
  --------------------------     8208   	rseg $$TABKMX61_BUF_THRESH_L$main
00:0000                          8209   _KMX61_BUF_THRESH_L :
00:0000 77                       8210   	db	077h
                                 8211   
  --------------------------     8212   	rseg $$TABKMX61_BUF_CTRL1$main
00:0000                          8213   _KMX61_BUF_CTRL1 :
00:0000 78                       8214   	db	078h
                                 8215   
  --------------------------     8216   	rseg $$TABKMX61_BUF_CTRL2$main
00:0000                          8217   _KMX61_BUF_CTRL2 :
00:0000 79                       8218   	db	079h
                                 8219   
  --------------------------     8220   	rseg $$TABKMX61_BUF_CLEAR$main
00:0000                          8221   _KMX61_BUF_CLEAR :
00:0000 7A                       8222   	db	07ah
                                 8223   
  --------------------------     8224   	rseg $$TABKMX61_BUF_STATUS_REG$main
00:0000                          8225   _KMX61_BUF_STATUS_REG :
00:0000 7B                       8226   	db	07bh
                                 8227   
  --------------------------     8228   	rseg $$TABKMX61_BUF_STATUS_H$main
00:0000                          8229   _KMX61_BUF_STATUS_H :
00:0000 7C                       8230   	db	07ch
                                 8231   
  --------------------------     8232   	rseg $$TABKMX61_BUF_STATUS_L$main
00:0000                          8233   _KMX61_BUF_STATUS_L :
00:0000 7D                       8234   	db	07dh
                                 8235   
  --------------------------     8236   	rseg $$TABKMX61_BUF_READ$main
00:0000                          8237   _KMX61_BUF_READ :
00:0000 7E                       8238   	db	07eh
                                 8239   
  --------------------------     8240   	rseg $$TABKMX61_SELF_TEST_CFGDAT$main
00:0000                          8241   _KMX61_SELF_TEST_CFGDAT :
00:0000 00                       8242   	db	00h
                                 8243   
  --------------------------     8244   	rseg $$TABKMX61_CNTL1_CFGDAT$main
00:0000                          8245   _KMX61_CNTL1_CFGDAT :
00:0000 13                       8246   	db	013h
                                 8247   
  --------------------------     8248   	rseg $$TABKMX61_CNTL2_CFGDAT$main
00:0000                          8249   _KMX61_CNTL2_CFGDAT :
00:0000 00                       8250   	db	00h
                                 8251   
  --------------------------     8252   	rseg $$TABKMX61_ODCNTL_CFGDAT$main
00:0000                          8253   _KMX61_ODCNTL_CFGDAT :
00:0000 00                       8254   	db	00h
                                 8255   
  --------------------------     8256   	rseg $$TABKMX61_TEMP_EN_CNTL_CFGDAT$main
00:0000                          8257   _KMX61_TEMP_EN_CNTL_CFGDAT :
00:0000 01                       8258   	db	01h
                                 8259   
  --------------------------     8260   	rseg $$TABKMX61_BUF_CTRL1_CFGDAT$main
00:0000                          8261   _KMX61_BUF_CTRL1_CFGDAT :
00:0000 00                       8262   	db	00h
                                 8263   
  --------------------------     8264   	rseg $$TABKMX61_BUF_CTRL2_CFGDAT$main
00:0000                          8265   _KMX61_BUF_CTRL2_CFGDAT :
00:0000 00                       8266   	db	00h
                                 8267   
  --------------------------     8268   	rseg $$TABKXG03_I2C_ADDR$main
00:0000                          8269   _KXG03_I2C_ADDR :
00:0000 4E                       8270   	db	04eh
                                 8271   
  --------------------------     8272   	rseg $$TABKXG03_GYRO_XOUT_L$main
00:0000                          8273   _KXG03_GYRO_XOUT_L :
00:0000 00                       8274   	db	00h
                                 8275   
  --------------------------     8276   	rseg $$TABKXG03_GYRO_XOUT_H$main
00:0000                          8277   _KXG03_GYRO_XOUT_H :
00:0000 01                       8278   	db	01h
                                 8279   
  --------------------------     8280   	rseg $$TABKXG03_GYRO_YOUT_L$main
00:0000                          8281   _KXG03_GYRO_YOUT_L :
00:0000 02                       8282   	db	02h
                                 8283   
  --------------------------     8284   	rseg $$TABKXG03_GYRO_YOUT_H$main
00:0000                          8285   _KXG03_GYRO_YOUT_H :
00:0000 03                       8286   	db	03h
                                 8287   
  --------------------------     8288   	rseg $$TABKXG03_GYRO_ZOUT_L$main
00:0000                          8289   _KXG03_GYRO_ZOUT_L :
00:0000 04                       8290   	db	04h
                                 8291   
  --------------------------     8292   	rseg $$TABKXG03_GYRO_ZOUT_H$main
00:0000                          8293   _KXG03_GYRO_ZOUT_H :
00:0000 05                       8294   	db	05h
                                 8295   
  --------------------------     8296   	rseg $$TABKXG03_ACC_XOUT_L$main
00:0000                          8297   _KXG03_ACC_XOUT_L :
00:0000 06                       8298   	db	06h
                                 8299   
  --------------------------     8300   	rseg $$TABKXG03_ACC_XOUT_H$main
00:0000                          8301   _KXG03_ACC_XOUT_H :
00:0000 07                       8302   	db	07h
                                 8303   
  --------------------------     8304   	rseg $$TABKXG03_ACC_YOUT_L$main
00:0000                          8305   _KXG03_ACC_YOUT_L :
00:0000 08                       8306   	db	08h
                                 8307   
  --------------------------     8308   	rseg $$TABKXG03_ACC_YOUT_H$main
00:0000                          8309   _KXG03_ACC_YOUT_H :
00:0000 09                       8310   	db	09h
                                 8311   
  --------------------------     8312   	rseg $$TABKXG03_ACC_ZOUT_L$main
00:0000                          8313   _KXG03_ACC_ZOUT_L :
00:0000 0A                       8314   	db	0ah
                                 8315   
  --------------------------     8316   	rseg $$TABKXG03_ACC_ZOUT_H$main
00:0000                          8317   _KXG03_ACC_ZOUT_H :
00:0000 0B                       8318   	db	0bh
                                 8319   
  --------------------------     8320   	rseg $$TABKXG03_STBY_REG$main
00:0000                          8321   _KXG03_STBY_REG :
00:0000 29                       8322   	db	029h
                                 8323   
  --------------------------     8324   	rseg $$TABKXG03_CTRL_REG1$main
00:0000                          8325   _KXG03_CTRL_REG1 :
00:0000 2A                       8326   	db	02ah
                                 8327   
  --------------------------     8328   	rseg $$TABKXG03_CTRL_REG2$main
00:0000                          8329   _KXG03_CTRL_REG2 :
00:0000 2B                       8330   	db	02bh
                                 8331   
  --------------------------     8332   	rseg $$TABKXG03_ODCTRL$main
00:0000                          8333   _KXG03_ODCTRL :
00:0000 2C                       8334   	db	02ch
                                 8335   
  --------------------------     8336   	rseg $$TABKXG03_STBY_SET$main
00:0000                          8337   _KXG03_STBY_SET :
00:0000 7F                       8338   	db	07fh
                                 8339   
  --------------------------     8340   	rseg $$TABKXG03_CTRL_REG1_CFDAT$main
00:0000                          8341   _KXG03_CTRL_REG1_CFDAT :
00:0000 1C                       8342   	db	01ch
                                 8343   
  --------------------------     8344   	rseg $$TABKXG03_CTRL_REG2_CFDAT$main
00:0000                          8345   _KXG03_CTRL_REG2_CFDAT :
00:0000 06                       8346   	db	06h
                                 8347   
  --------------------------     8348   	rseg $$TABKXG03_ODCTRL_CFDAT$main
00:0000                          8349   _KXG03_ODCTRL_CFDAT :
00:0000 22                       8350   	db	022h
                                 8351   
  --------------------------     8352   	rseg $$TABBM1383GLV_I2C_ADDR$main
00:0000                          8353   _BM1383GLV_I2C_ADDR :
00:0000 5D                       8354   	db	05dh
                                 8355   
  --------------------------     8356   	rseg $$TABBM1383GLV_ID$main
00:0000                          8357   _BM1383GLV_ID :
00:0000 10                       8358   	db	010h
                                 8359   
  --------------------------     8360   	rseg $$TABBM1383GLV_RESET_CONTROL$main
00:0000                          8361   _BM1383GLV_RESET_CONTROL :
00:0000 11                       8362   	db	011h
                                 8363   
  --------------------------     8364   	rseg $$TABBM1383GLV_POWER_DOWN$main
00:0000                          8365   _BM1383GLV_POWER_DOWN :
00:0000 12                       8366   	db	012h
                                 8367   
  --------------------------     8368   	rseg $$TABBM1383GLV_SLEEP$main
00:0000                          8369   _BM1383GLV_SLEEP :
00:0000 13                       8370   	db	013h
                                 8371   
  --------------------------     8372   	rseg $$TABBM1383GLV_MODE_CONTROL$main
00:0000                          8373   _BM1383GLV_MODE_CONTROL :
00:0000 14                       8374   	db	014h
                                 8375   
  --------------------------     8376   	rseg $$TABBM1383GLV_TEMPERATURE_MSB$main
00:0000                          8377   _BM1383GLV_TEMPERATURE_MSB :
00:0000 1A                       8378   	db	01ah
                                 8379   
  --------------------------     8380   	rseg $$TABBM1383GLV_TEMPERATURE_LSB$main
00:0000                          8381   _BM1383GLV_TEMPERATURE_LSB :
00:0000 1B                       8382   	db	01bh
                                 8383   
  --------------------------     8384   	rseg $$TABBM1383GLV_PRESSURE_MSB$main
00:0000                          8385   _BM1383GLV_PRESSURE_MSB :
00:0000 1C                       8386   	db	01ch
                                 8387   
  --------------------------     8388   	rseg $$TABBM1383GLV_PRESSURE_LSB$main
00:0000                          8389   _BM1383GLV_PRESSURE_LSB :
00:0000 1D                       8390   	db	01dh
                                 8391   
  --------------------------     8392   	rseg $$TABBM1383GLV_POWER_ON$main
00:0000                          8393   _BM1383GLV_POWER_ON :
00:0000 01                       8394   	db	01h
                                 8395   
  --------------------------     8396   	rseg $$TABBM1383GLV_POWER_OFF$main
00:0000                          8397   _BM1383GLV_POWER_OFF :
00:0000 00                       8398   	db	00h
                                 8399   
  --------------------------     8400   	rseg $$TABBM1383GLV_SLEEP_ACT$main
00:0000                          8401   _BM1383GLV_SLEEP_ACT :
00:0000 01                       8402   	db	01h
                                 8403   
  --------------------------     8404   	rseg $$TABBM1383GLV_SLEEP_SLP$main
00:0000                          8405   _BM1383GLV_SLEEP_SLP :
00:0000 00                       8406   	db	00h
                                 8407   
  --------------------------     8408   	rseg $$TABBM1383GLV_MODE_CONTROL_AVGN$main
00:0000                          8409   _BM1383GLV_MODE_CONTROL_AVGN :
00:0000 02                       8410   	db	02h
                                 8411   
  --------------------------     8412   	rseg $$TABBM1383GLV_MODE_CONTROL_MODE$main
00:0000                          8413   _BM1383GLV_MODE_CONTROL_MODE :
00:0000 04                       8414   	db	04h
                                 8415   
  --------------------------     8416   	rseg $$TABBM1383GLV_MODE_CONTROL_REG$main
00:0000                          8417   _BM1383GLV_MODE_CONTROL_REG :
00:0000 44                       8418   	db	044h
                                 8419   
  --------------------------     8420   	rseg $$TABBH1745_I2C_ADDR$main
00:0000                          8421   _BH1745_I2C_ADDR :
00:0000 39                       8422   	db	039h
                                 8423   
  --------------------------     8424   	rseg $$TABBH1745_SYSTEM_CONTROL$main
00:0000                          8425   _BH1745_SYSTEM_CONTROL :
00:0000 40                       8426   	db	040h
                                 8427   
  --------------------------     8428   	rseg $$TABBH1745_MODE_CONTROL1$main
00:0000                          8429   _BH1745_MODE_CONTROL1 :
00:0000 41                       8430   	db	041h
                                 8431   
  --------------------------     8432   	rseg $$TABBH1745_MODE_CONTROL2$main
00:0000                          8433   _BH1745_MODE_CONTROL2 :
00:0000 42                       8434   	db	042h
                                 8435   
  --------------------------     8436   	rseg $$TABBH1745_MODE_CONTROL3$main
00:0000                          8437   _BH1745_MODE_CONTROL3 :
00:0000 43                       8438   	db	043h
                                 8439   
  --------------------------     8440   	rseg $$TABBH1745_PERSISTENCE$main
00:0000                          8441   _BH1745_PERSISTENCE :
00:0000 61                       8442   	db	061h
                                 8443   
  --------------------------     8444   	rseg $$TABBH1745_INTERRUPT$main
00:0000                          8445   _BH1745_INTERRUPT :
00:0000 60                       8446   	db	060h
                                 8447   
  --------------------------     8448   	rseg $$TABBH1745_MANUFACTURER_ID$main
00:0000                          8449   _BH1745_MANUFACTURER_ID :
00:0000 92                       8450   	db	092h
                                 8451   
  --------------------------     8452   	rseg $$TABBH1745_RED_DATA_LSBs$main
00:0000                          8453   _BH1745_RED_DATA_LSBs :
00:0000 50                       8454   	db	050h
                                 8455   
  --------------------------     8456   	rseg $$TABBH1745_RED_DATA_MSBs$main
00:0000                          8457   _BH1745_RED_DATA_MSBs :
00:0000 51                       8458   	db	051h
                                 8459   
  --------------------------     8460   	rseg $$TABBH1745_GREEN_DATA_LSBs$main
00:0000                          8461   _BH1745_GREEN_DATA_LSBs :
00:0000 52                       8462   	db	052h
                                 8463   
  --------------------------     8464   	rseg $$TABBH1745_GREEN_DATA_MSBs$main
00:0000                          8465   _BH1745_GREEN_DATA_MSBs :
00:0000 53                       8466   	db	053h
                                 8467   
  --------------------------     8468   	rseg $$TABBH1745_BLUE_DATA_LSBs$main
00:0000                          8469   _BH1745_BLUE_DATA_LSBs :
00:0000 54                       8470   	db	054h
                                 8471   
  --------------------------     8472   	rseg $$TABBH1745_BLUE_DATA_MSBs$main
00:0000                          8473   _BH1745_BLUE_DATA_MSBs :
00:0000 55                       8474   	db	055h
                                 8475   
  --------------------------     8476   	rseg $$TABRPR0521_I2C_ADDR$main
00:0000                          8477   _RPR0521_I2C_ADDR :
00:0000 38                       8478   	db	038h
                                 8479   
  --------------------------     8480   	rseg $$TABRPR0521_Prox_ModeCTR$main
00:0000                          8481   _RPR0521_Prox_ModeCTR :
00:0000 41                       8482   	db	041h
                                 8483   
  --------------------------     8484   	rseg $$TABRPR0521_ALS_ModeCTR$main
00:0000                          8485   _RPR0521_ALS_ModeCTR :
00:0000 42                       8486   	db	042h
                                 8487   
  --------------------------     8488   	rseg $$TABRPR0521_PS_ModeCTR$main
00:0000                          8489   _RPR0521_PS_ModeCTR :
00:0000 43                       8490   	db	043h
                                 8491   
  --------------------------     8492   	rseg $$TABRPR0521_Prox_ModeCTR_CFG$main
00:0000                          8493   _RPR0521_Prox_ModeCTR_CFG :
00:0000 C6                       8494   	db	0c6h
                                 8495   
  --------------------------     8496   	rseg $$TABRPR0521_ALS_ModeCTR_CFG$main
00:0000                          8497   _RPR0521_ALS_ModeCTR_CFG :
00:0000 02                       8498   	db	02h
                                 8499   
  --------------------------     8500   	rseg $$TABRPR0521_PS_ModeCTR_CFG$main
00:0000                          8501   _RPR0521_PS_ModeCTR_CFG :
00:0000 21                       8502   	db	021h
                                 8503   
  --------------------------     8504   	rseg $$TABRPR0521_Manufact_ID$main
00:0000                          8505   _RPR0521_Manufact_ID :
00:0000 92                       8506   	db	092h
                                 8507   
  --------------------------     8508   	rseg $$TABRPR0521_Prox_PS_LSB$main
00:0000                          8509   _RPR0521_Prox_PS_LSB :
00:0000 44                       8510   	db	044h
                                 8511   
  --------------------------     8512   	rseg $$TABRPR0521_Prox_PS_MSB$main
00:0000                          8513   _RPR0521_Prox_PS_MSB :
00:0000 45                       8514   	db	045h
                                 8515   
  --------------------------     8516   	rseg $$TABRPR0521_ALS0_LSB$main
00:0000                          8517   _RPR0521_ALS0_LSB :
00:0000 46                       8518   	db	046h
                                 8519   
  --------------------------     8520   	rseg $$TABRPR0521_ALS0_MSB$main
00:0000                          8521   _RPR0521_ALS0_MSB :
00:0000 47                       8522   	db	047h
                                 8523   
  --------------------------     8524   	rseg $$TABRPR0521_ALS1_LSB$main
00:0000                          8525   _RPR0521_ALS1_LSB :
00:0000 48                       8526   	db	048h
                                 8527   
  --------------------------     8528   	rseg $$TABRPR0521_ALS1_MSB$main
00:0000                          8529   _RPR0521_ALS1_MSB :
00:0000 49                       8530   	db	049h
                                 8531   
  --------------------------     8532   	rseg $$TAB$$S30$main
00:0000                          8533   $$S30 :
00:0000 1B 5B 32 4A 1B 5B 31 3B  8534   	DB	"\x1b[2J\x1b[1;1H*********************************************\x0a\x0d** Q112 Firmware - Sensor Platform EVK\x0a\x0d** Revision    : REV00\x0a\x0d** Release date: Jun  8 2015 16:19:13\x0a\x0d** By          : ROHM Semiconductor USA, LLC\x0a\x0d********
00:0008 31 48 2A 2A 2A 2A 2A 2A   >>>   
00:0010 2A 2A 2A 2A 2A 2A 2A 2A   >>>   
00:0018 2A 2A 2A 2A 2A 2A 2A 2A   >>>   
00:0020 2A 2A 2A 2A 2A 2A 2A 2A   >>>   
00:0028 2A 2A 2A 2A 2A 2A 2A 2A   >>>   
00:0030 2A 2A 2A 2A 2A 2A 2A 0A   >>>   
00:0038 0D 2A 2A 20 51 31 31 32   >>>   
00:0040 20 46 69 72 6D 77 61 72   >>>   
00:0048 65 20 2D 20 53 65 6E 73   >>>   
00:0050 6F 72 20 50 6C 61 74 66   >>>   
00:0058 6F 72 6D 20 45 56 4B 0A   >>>   
00:0060 0D 2A 2A 20 52 65 76 69   >>>   
00:0068 73 69 6F 6E 20 20 20 20   >>>   
00:0070 3A 20 52 45 56 30 30 0A   >>>   
00:0078 0D 2A 2A 20 52 65 6C 65   >>>   
00:0080 61 73 65 20 64 61 74 65   >>>   
00:0088 3A 20 4A 75 6E 20 20 38   >>>   
00:0090 20 32 30 31 35 20 31 36   >>>   
00:0098 3A 31 39 3A 31 33 0A 0D   >>>   
00:00A0 2A 2A 20 42 79 20 20 20   >>>   
00:00A8 20 20 20 20 20 20 20 3A   >>>   
00:00B0 20 52 4F 48 4D 20 53 65   >>>   
00:00B8 6D 69 63 6F 6E 64 75 63   >>>   
00:00C0 74 6F 72 20 55 53 41 2C   >>>   
00:00C8 20 4C 4C 43 0A 0D 2A 2A   >>>   
00:00D0 2A 2A 2A 2A 2A 2A 2A 2A   >>>   
00:00D8 2A 2A 2A 2A 2A 2A 2A 2A   >>>   
00:00E0 2A 2A 2A 2A 2A 2A 2A 2A   >>>   
00:00E8 2A 2A 2A 2A 2A 2A 2A 2A   >>>   
00:00F0 2A 2A 2A 2A 2A 2A 2A 2A   >>>   
00:00F8 2A 2A                     >>>   
00:00FA 2A 0A 0A 0A 0A 0D 00     8535   	DB	"*\x0a\x0a\x0a\x0a\x0d", 00H
                                 8536   
  --------------------------     8537   	rseg $$TAB$$S58$main
00:0000                          8538   $$S58 :
00:0000 1B 5B 4A 4E 6F 20 64 65  8539   	DB	"\x1b[JNo device connected.\x0d"
00:0008 76 69 63 65 20 63 6F 6E   >>>   
00:0010 6E 65 63 74 65 64 2E 0D   >>>   ,
00:0018 00                        >>>    00H
                                 8540   
  --------------------------     8541   	rseg $$TAB$$S59$main
00:0000                          8542   $$S59 :
00:0000 1B 5B 4A 64 65 76 69 63  8543   	DB	"\x1b[Jdevice selected = %lu[lx]\x0d"
00:0008 65 20 73 65 6C 65 63 74   >>>   
00:0010 65 64 20 3D 20 25 6C 75   >>>   
00:0018 5B 6C 78 5D 0D 00         >>>   , 00H
                                 8544   
  --------------------------     8545   	rseg $$TAB$$S134$main
00:0000                          8546   $$S134 :
00:0000 1B 5B 4A 42 55 35 32 30  8547   	DB	"\x1b[JBU52004GUL> Hall \xe2\x80\x93 No Mag Fields Detected.\x0d"
00:0008 30 34 47 55 4C 3E 20 48   >>>   
00:0010 61 6C 6C 20 E2 80 93 20   >>>   
00:0018 4E 6F 20 4D 61 67 20 46   >>>   
00:0020 69 65 6C 64 73 20 44 65   >>>   
00:0028 74 65 63 74 65 64 2E 0D   >>>   ,
00:0030 00                        >>>    00H
                                 8548   
  --------------------------     8549   	rseg $$TAB$$S143$main
00:0000                          8550   $$S143 :
00:0000 1B 5B 4A 42 55 35 32 30  8551   	DB	"\x1b[JBU52004GUL> Hall \xe2\x80\x93 North Mag Field Detected.\x0d"
00:0008 30 34 47 55 4C 3E 20 48   >>>   
00:0010 61 6C 6C 20 E2 80 93 20   >>>   
00:0018 4E 6F 72 74 68 20 4D 61   >>>   
00:0020 67 20 46 69 65 6C 64 20   >>>   
00:0028 44 65 74 65 63 74 65 64   >>>   
00:0030 2E 0D 00                  >>>   , 00H
                                 8552   
  --------------------------     8553   	rseg $$TAB$$S152$main
00:0000                          8554   $$S152 :
00:0000 1B 5B 4A 42 55 35 32 30  8555   	DB	"\x1b[JBU52004GUL> Hall \xe2\x80\x93 South Mag Field Detected.\x0d"
00:0008 30 34 47 55 4C 3E 20 48   >>>   
00:0010 61 6C 6C 20 E2 80 93 20   >>>   
00:0018 53 6F 75 74 68 20 4D 61   >>>   
00:0020 67 20 46 69 65 6C 64 20   >>>   
00:0028 44 65 74 65 63 74 65 64   >>>   
00:0030 2E 0D 00                  >>>   , 00H
                                 8556   
  --------------------------     8557   	rseg $$TAB$$S154$main
00:0000                          8558   $$S154 :
00:0000 42 55 35 32 30 30 34 47  8559   	DB	"BU52004GUL> Hall \xe2\x80\x93 Both Mag Fields Detected.\x0a\x0d"
00:0008 55 4C 3E 20 48 61 6C 6C   >>>   
00:0010 20 E2 80 93 20 42 6F 74   >>>   
00:0018 68 20 4D 61 67 20 46 69   >>>   
00:0020 65 6C 64 73 20 44 65 74   >>>   
00:0028 65 63 74 65 64 2E 0A 0D   >>>   ,
00:0030 00                        >>>    00H
                                 8560   
  --------------------------     8561   	rseg $$TAB$$S158$main
00:0000                          8562   $$S158 :
00:0000 0A 0D 42 55 35 32 30 31  8563   	DB	"\x0a\x0dBU52011HFV> \x09\x09\x09\x09= Mag Field Detected.        \x0a\x0d"
00:0008 31 48 46 56 3E 20 09 09   >>>   
00:0010 09 09 3D 20 4D 61 67 20   >>>   
00:0018 46 69 65 6C 64 20 44 65   >>>   
00:0020 74 65 63 74 65 64 2E 20   >>>   
00:0028 20 20 20 20 20 20 20 0A   >>>   
00:0030 0D 00                     >>>   , 00H
                                 8564   
  --------------------------     8565   	rseg $$TAB$$S160$main
00:0000                          8566   $$S160 :
00:0000 0A 0D 42 55 35 32 30 31  8567   	DB	"\x0a\x0dBU52011HFV> \x09\x09\x09\x09= No Mag Fields Detected.           \x0a\x0d"
00:0008 31 48 46 56 3E 20 09 09   >>>   
00:0010 09 09 3D 20 4E 6F 20 4D   >>>   
00:0018 61 67 20 46 69 65 6C 64   >>>   
00:0020 73 20 44 65 74 65 63 74   >>>   
00:0028 65 64 2E 20 20 20 20 20   >>>   
00:0030 20 20 20 20 20 20 0A 0D   >>>   ,
00:0038 00                        >>>    00H
                                 8568   
  --------------------------     8569   	rseg $$TAB$$S165$main
00:0000                          8570   $$S165 :
00:0000 0A 0D 42 4D 31 33 38 33  8571   	DB	"\x0a\x0dBM1383> Pressure \x09\x09\x09= %3.4f[hPa], \x0a\x0d\x09Temperature \x09\x09\x09= %3.4f[C]\x0a\x0d"
00:0008 3E 20 50 72 65 73 73 75   >>>   
00:0010 72 65 20 09 09 09 3D 20   >>>   
00:0018 25 33 2E 34 66 5B 68 50   >>>   
00:0020 61 5D 2C 20 0A 0D 09 54   >>>   
00:0028 65 6D 70 65 72 61 74 75   >>>   
00:0030 72 65 20 09 09 09 3D 20   >>>   
00:0038 25 33 2E 34 66 5B 43 5D   >>>   
00:0040 0A 0D 00                  >>>   , 00H
                                 8572   
  --------------------------     8573   	rseg $$TAB$$S167$main
00:0000                          8574   $$S167 :
00:0000 0A 0D 42 48 31 37 34 35  8575   	DB	"\x0a\x0dBH1745> R \x09\x09\x09\x09= %8hu, \x0a\x0d\x09G \x09\x09\x09\x09= %8hu, \x0a\x0d\x09B \x09\x09\x09\x09= %8hu, \x0a\x0d\x09C \x09\x09\x09\x09= %8hu\x0a\x0d"
00:0008 3E 20 52 20 09 09 09 09   >>>   
00:0010 3D 20 25 38 68 75 2C 20   >>>   
00:0018 0A 0D 09 47 20 09 09 09   >>>   
00:0020 09 3D 20 25 38 68 75 2C   >>>   
00:0028 20 0A 0D 09 42 20 09 09   >>>   
00:0030 09 09 3D 20 25 38 68 75   >>>   
00:0038 2C 20 0A 0D 09 43 20 09   >>>   
00:0040 09 09 09 3D 20 25 38 68   >>>   
00:0048 75 0A 0D 00               >>>   , 00H
                                 8576   
  --------------------------     8577   	rseg $$TAB$$S178$main
00:0000                          8578   $$S178 :
00:0000 1B 5B 4A 42 48 31 36 32  8579   	DB	"\x1b[JBH1620FVC> Ambient Light = %lu[lx]\x0d"
00:0008 30 46 56 43 3E 20 41 6D   >>>   
00:0010 62 69 65 6E 74 20 4C 69   >>>   
00:0018 67 68 74 20 3D 20 25 6C   >>>   
00:0020 75 5B 6C 78 5D 0D 00      >>>   , 00H
                                 8580   
  --------------------------     8581   	rseg $$TAB$$S180$main
00:0000                          8582   $$S180 :
00:0000 1B 5B 4A 42 48 31 37 31  8583   	DB	"\x1b[JBH1710FVC> Ambient Light = %lu[lx]\x0d"
00:0008 30 46 56 43 3E 20 41 6D   >>>   
00:0010 62 69 65 6E 74 20 4C 69   >>>   
00:0018 67 68 74 20 3D 20 25 6C   >>>   
00:0020 75 5B 6C 78 5D 0D 00      >>>   , 00H
                                 8584   
  --------------------------     8585   	rseg $$TAB$$S194$main
00:0000                          8586   $$S194 :
00:0000 1B 5B 4A 42 48 31 37 33  8587   	DB	"\x1b[JBH1730FVC> Ambient Light = %lu[lx]\x0d"
00:0008 30 46 56 43 3E 20 41 6D   >>>   
00:0010 62 69 65 6E 74 20 4C 69   >>>   
00:0018 67 68 74 20 3D 20 25 6C   >>>   
00:0020 75 5B 6C 78 5D 0D 00      >>>   , 00H
                                 8588   
  --------------------------     8589   	rseg $$TAB$$S196$main
00:0000                          8590   $$S196 :
00:0000 1B 5B 4A 42 48 31 37 32  8591   	DB	"\x1b[JBH1721FVC> Ambient Light = %lu[lx]\x0d"
00:0008 31 46 56 43 3E 20 41 6D   >>>   
00:0010 62 69 65 6E 74 20 4C 69   >>>   
00:0018 67 68 74 20 3D 20 25 6C   >>>   
00:0020 75 5B 6C 78 5D 0D 00      >>>   , 00H
                                 8592   
  --------------------------     8593   	rseg $$TAB$$S198$main
00:0000                          8594   $$S198 :
00:0000 1B 5B 4A 42 48 31 37 38  8595   	DB	"\x1b[JBH1780GLI> Ambient Light = %lu[lx]\x0d"
00:0008 30 47 4C 49 3E 20 41 6D   >>>   
00:0010 62 69 65 6E 74 20 4C 69   >>>   
00:0018 67 68 74 20 3D 20 25 6C   >>>   
00:0020 75 5B 6C 78 5D 0D 00      >>>   , 00H
                                 8596   
  --------------------------     8597   	rseg $$TAB$$S200$main
00:0000                          8598   $$S200 :
00:0000 0A 0D 4D 4C 38 35 31 31  8599   	DB	"\x0a\x0dML8511> UV Intensity \x09\x09\x09= %.02f[mW/cm2]. \x0a\x0d\x09Vsenout \x09\x09\x09= %.02f[V] \x0a\x0d"
00:0008 3E 20 55 56 20 49 6E 74   >>>   
00:0010 65 6E 73 69 74 79 20 09   >>>   
00:0018 09 09 3D 20 25 2E 30 32   >>>   
00:0020 66 5B 6D 57 2F 63 6D 32   >>>   
00:0028 5D 2E 20 0A 0D 09 56 73   >>>   
00:0030 65 6E 6F 75 74 20 09 09   >>>   
00:0038 09 3D 20 25 2E 30 32 66   >>>   
00:0040 5B 56 5D 20 0A 0D 00      >>>   , 00H
                                 8600   
  --------------------------     8601   	rseg $$TAB$$S202$main
00:0000                          8602   $$S202 :
00:0000 0A 0D 52 50 52 30 35 32  8603   	DB	"\x0a\x0dRPR0521> Prox \x09\x09\x09\x09= %10lu[raw], \x0a\x0d\x09ALS \x09\x09\x09\x09= %10lu[raw]\x0a\x0d"
00:0008 31 3E 20 50 72 6F 78 20   >>>   
00:0010 09 09 09 09 3D 20 25 31   >>>   
00:0018 30 6C 75 5B 72 61 77 5D   >>>   
00:0020 2C 20 0A 0D 09 41 4C 53   >>>   
00:0028 20 09 09 09 09 3D 20 25   >>>   
00:0030 31 30 6C 75 5B 72 61 77   >>>   
00:0038 5D 0A 0D 00               >>>   , 00H
                                 8604   
  --------------------------     8605   	rseg $$TAB$$S204$main
00:0000                          8606   $$S204 :
00:0000 1B 5B 4A 4B 58 47 30 33  8607   	DB	"\x1b[JKXG03> GyroX_raw = %d, GyroX_scaled = %.05f[g], GyroY_raw = %d, GyroY_scaled = %.05f[g], GyroZ_raw = %d, GyroZ_scaled = %.05f[g]\x0d"
00:0008 3E 20 47 79 72 6F 58 5F   >>>   
00:0010 72 61 77 20 3D 20 25 64   >>>   
00:0018 2C 20 47 79 72 6F 58 5F   >>>   
00:0020 73 63 61 6C 65 64 20 3D   >>>   
00:0028 20 25 2E 30 35 66 5B 67   >>>   
00:0030 5D 2C 20 47 79 72 6F 59   >>>   
00:0038 5F 72 61 77 20 3D 20 25   >>>   
00:0040 64 2C 20 47 79 72 6F 59   >>>   
00:0048 5F 73 63 61 6C 65 64 20   >>>   
00:0050 3D 20 25 2E 30 35 66 5B   >>>   
00:0058 67 5D 2C 20 47 79 72 6F   >>>   
00:0060 5A 5F 72 61 77 20 3D 20   >>>   
00:0068 25 64 2C 20 47 79 72 6F   >>>   
00:0070 5A 5F 73 63 61 6C 65 64   >>>   
00:0078 20 3D 20 25 2E 30 35 66   >>>   
00:0080 5B 67 5D 0D 00            >>>   , 00H
                                 8608   
  --------------------------     8609   	rseg $$TAB$$S205$main
00:0000                          8610   $$S205 :
00:0000 1B 5B 4A 4B 58 30 32 32  8611   	DB	"\x1b[JKX022> AccelX_raw = %d, AccelX_scaled = %.05f[g], AccelY_raw = %d, AccelY_scaled = %.05f[g], AccelZ_raw = %d, AccelZ_scaled = %.05f[g]\x0d"
00:0008 3E 20 41 63 63 65 6C 58   >>>   
00:0010 5F 72 61 77 20 3D 20 25   >>>   
00:0018 64 2C 20 41 63 63 65 6C   >>>   
00:0020 58 5F 73 63 61 6C 65 64   >>>   
00:0028 20 3D 20 25 2E 30 35 66   >>>   
00:0030 5B 67 5D 2C 20 41 63 63   >>>   
00:0038 65 6C 59 5F 72 61 77 20   >>>   
00:0040 3D 20 25 64 2C 20 41 63   >>>   
00:0048 63 65 6C 59 5F 73 63 61   >>>   
00:0050 6C 65 64 20 3D 20 25 2E   >>>   
00:0058 30 35 66 5B 67 5D 2C 20   >>>   
00:0060 41 63 63 65 6C 5A 5F 72   >>>   
00:0068 61 77 20 3D 20 25 64 2C   >>>   
00:0070 20 41 63 63 65 6C 5A 5F   >>>   
00:0078 73 63 61 6C 65 64 20 3D   >>>   
00:0080 20 25 2E 30 35 66 5B 67   >>>   
00:0088 5D 0D 00                  >>>   , 00H
                                 8612   
  --------------------------     8613   	rseg $$TAB$$S207$main
00:0000                          8614   $$S207 :
00:0000 0A 0D 4B 58 30 32 32 3E  8615   	DB	"\x0a\x0dKX022> AccelX_raw \x09\x09\x09= %d, \x0a\x0d\x09AccelX_scaled \x09\x09\x09= %.05f[g], \x0a\x0d\x09AccelY_raw \x09\x09\x09= %d, \x0a\x0d\x09AccelY_scaled \x09\x09\x09= %.05f[g], \x0a\x0d\x09AccelZ_raw \x09\x09\x09= %d, \x0a\x0d\x09AccelZ_scale
00:0008 20 41 63 63 65 6C 58 5F   >>>   
00:0010 72 61 77 20 09 09 09 3D   >>>   
00:0018 20 25 64 2C 20 0A 0D 09   >>>   
00:0020 41 63 63 65 6C 58 5F 73   >>>   
00:0028 63 61 6C 65 64 20 09 09   >>>   
00:0030 09 3D 20 25 2E 30 35 66   >>>   
00:0038 5B 67 5D 2C 20 0A 0D 09   >>>   
00:0040 41 63 63 65 6C 59 5F 72   >>>   
00:0048 61 77 20 09 09 09 3D 20   >>>   
00:0050 25 64 2C 20 0A 0D 09 41   >>>   
00:0058 63 63 65 6C 59 5F 73 63   >>>   
00:0060 61 6C 65 64 20 09 09 09   >>>   
00:0068 3D 20 25 2E 30 35 66 5B   >>>   
00:0070 67 5D 2C 20 0A 0D 09 41   >>>   
00:0078 63 63 65 6C 5A 5F 72 61   >>>   
00:0080 77 20 09 09 09 3D 20 25   >>>   
00:0088 64 2C 20 0A 0D 09 41 63   >>>   
00:0090 63 65 6C 5A 5F 73 63 61   >>>   
00:0098 6C 65 64 20 09 09 09 3D   >>>   
00:00A0 20 25 2E 30 35 66 5B 67   >>>   
00:00A8 5D 0A 0D 00               >>>   , 00H
                                 8616   
  --------------------------     8617   	rseg $$TAB$$S220$main
00:0000                          8618   $$S220 :
00:0000 0A 0D 4B 4D 58 36 32 3E  8619   	DB	"\x0a\x0dKMX62> AccelX_raw \x09\x09\x09= %10d, \x0a\x0d\x09AccelX_scaled \x09\x09\x09= %1.6f[g], \x0a\x0d\x09AccelY_raw \x09\x09\x09= %10d, \x0a\x0d\x09AccelY_scaled \x09\x09\x09= %1.6f[g], \x0a\x0d\x09AccelZ_raw \x09\x09\x09= %10d, \x0a\x0d\x09AccelZ
00:0008 20 41 63 63 65 6C 58 5F   >>>   
00:0010 72 61 77 20 09 09 09 3D   >>>   
00:0018 20 25 31 30 64 2C 20 0A   >>>   
00:0020 0D 09 41 63 63 65 6C 58   >>>   
00:0028 5F 73 63 61 6C 65 64 20   >>>   
00:0030 09 09 09 3D 20 25 31 2E   >>>   
00:0038 36 66 5B 67 5D 2C 20 0A   >>>   
00:0040 0D 09 41 63 63 65 6C 59   >>>   
00:0048 5F 72 61 77 20 09 09 09   >>>   
00:0050 3D 20 25 31 30 64 2C 20   >>>   
00:0058 0A 0D 09 41 63 63 65 6C   >>>   
00:0060 59 5F 73 63 61 6C 65 64   >>>   
00:0068 20 09 09 09 3D 20 25 31   >>>   
00:0070 2E 36 66 5B 67 5D 2C 20   >>>   
00:0078 0A 0D 09 41 63 63 65 6C   >>>   
00:0080 5A 5F 72 61 77 20 09 09   >>>   
00:0088 09 3D 20 25 31 30 64 2C   >>>   
00:0090 20 0A 0D 09 41 63 63 65   >>>   
00:0098 6C 5A 5F 73 63 61 6C 65   >>>   
00:00A0 64 20 09 09 09 3D 20 25   >>>   
00:00A8 31 2E 36 66 5B 67 5D 0A   >>>   
00:00B0 0D 00                     >>>   , 00H
                                 8620   
  --------------------------     8621   	rseg $$TAB$$S270$main
00:0000                          8622   $$S270 :
00:0000 4B 4D 58 36 32 3E 20 4D  8623   	DB	"KMX62> MagX_raw = %d, \x0a\x0d\x09MagX_scaled \x09\x09\x09= %.05f[uT], \x0a\x0d\x09MagY_raw \x09\x09\x09= %d, \x0a\x0d\x09MagY_scaled \x09\x09\x09= %.05f[uT], \x0a\x0d\x09MagZ_raw \x09\x09\x09= %d, \x0a\x0d\x09MagZ_scaled \x09\x09\x09= %.05f[uT]\x0a\
00:0008 61 67 58 5F 72 61 77 20   >>>   
00:0010 3D 20 25 64 2C 20 0A 0D   >>>   
00:0018 09 4D 61 67 58 5F 73 63   >>>   
00:0020 61 6C 65 64 20 09 09 09   >>>   
00:0028 3D 20 25 2E 30 35 66 5B   >>>   
00:0030 75 54 5D 2C 20 0A 0D 09   >>>   
00:0038 4D 61 67 59 5F 72 61 77   >>>   
00:0040 20 09 09 09 3D 20 25 64   >>>   
00:0048 2C 20 0A 0D 09 4D 61 67   >>>   
00:0050 59 5F 73 63 61 6C 65 64   >>>   
00:0058 20 09 09 09 3D 20 25 2E   >>>   
00:0060 30 35 66 5B 75 54 5D 2C   >>>   
00:0068 20 0A 0D 09 4D 61 67 5A   >>>   
00:0070 5F 72 61 77 20 09 09 09   >>>   
00:0078 3D 20 25 64 2C 20 0A 0D   >>>   
00:0080 09 4D 61 67 5A 5F 73 63   >>>   
00:0088 61 6C 65 64 20 09 09 09   >>>   
00:0090 3D 20 25 2E 30 35 66 5B   >>>   
00:0098 75 54 5D 0A 0D 00         >>>   , 00H
                                 8624   
  --------------------------     8625   	rseg $$TAB$$S272$main
00:0000                          8626   $$S272 :
00:0000 0A 0D 42 44 31 30 32 30  8627   	DB	"\x0a\x0dBD1020HFV> Temperature = %6.6f[\xc2\xb0C]. Vsenout = %6.6f[V]\x0a\x0d"
00:0008 48 46 56 3E 20 54 65 6D   >>>   
00:0010 70 65 72 61 74 75 72 65   >>>   
00:0018 20 3D 20 25 36 2E 36 66   >>>   
00:0020 5B C2 B0 43 5D 2E 20 56   >>>   
00:0028 73 65 6E 6F 75 74 20 3D   >>>   
00:0030 20 25 36 2E 36 66 5B 56   >>>   
00:0038 5D 0A 0D 00               >>>   , 00H
                                 8628   
  --------------------------     8629   	rseg $$TAB$$S274$main
00:0000                          8630   $$S274 :
00:0000 1B 5B 4A 42 44 4A 30 36  8631   	DB	"\x1b[JBDJ0601HFV> Temperature = %.02f[\xc2\xb0C]. Vsenout = %.02f[V]"
00:0008 30 31 48 46 56 3E 20 54   >>>   
00:0010 65 6D 70 65 72 61 74 75   >>>   
00:0018 72 65 20 3D 20 25 2E 30   >>>   
00:0020 32 66 5B C2 B0 43 5D 2E   >>>   
00:0028 20 56 73 65 6E 6F 75 74   >>>   
00:0030 20 3D 20 25 2E 30 32 66   >>>   
00:0038 5B 56 5D 00               >>>   , 00H
                                 8632   
  --------------------------     8633   	rseg $$TAB$$S277$main
00:0000                          8634   $$S277 :
00:0000 0A 0D 42 44 4A 30 36 30  8635   	DB	"\x0a\x0dBDJ0601HFV> Temperature Threshold Reached.\x1b[F"
00:0008 31 48 46 56 3E 20 54 65   >>>   
00:0010 6D 70 65 72 61 74 75 72   >>>   
00:0018 65 20 54 68 72 65 73 68   >>>   
00:0020 6F 6C 64 20 52 65 61 63   >>>   
00:0028 68 65 64 2E 1B 5B 46 00   >>>   , 00H
                                 8636   
  --------------------------     8637   	rseg $$TAB$$S279$main
00:0000                          8638   $$S279 :
00:0000 0A 0D 42 44 4A 30 36 30  8639   	DB	"\x0a\x0dBDJ0601HFV> Temperature Threshold Not Reached.\x1b[F"
00:0008 31 48 46 56 3E 20 54 65   >>>   
00:0010 6D 70 65 72 61 74 75 72   >>>   
00:0018 65 20 54 68 72 65 73 68   >>>   
00:0020 6F 6C 64 20 4E 6F 74 20   >>>   
00:0028 52 65 61 63 68 65 64 2E   >>>   
00:0030 1B 5B 46 00               >>>   , 00H
                                 8640   
  --------------------------     8641   	rseg $$TAB$$S281$main
00:0000                          8642   $$S281 :
00:0000 1B 5B 33 37 46 42 44 45  8643   	DB	"\x1b[37FBDE0600G> Temperature \x09\x09\x09= %.02f[C].\x0a\x0d"
00:0008 30 36 30 30 47 3E 20 54   >>>   
00:0010 65 6D 70 65 72 61 74 75   >>>   
00:0018 72 65 20 09 09 09 3D 20   >>>   
00:0020 25 2E 30 32 66 5B 43 5D   >>>   
00:0028 2E 0A 0D 00               >>>   , 00H
                                 8644   
  --------------------------     8645   	rseg $$TAB$$S283$main
00:0000                          8646   $$S283 :
00:0000 1B 5B 4A 42 44 4A 30 35  8647   	DB	"\x1b[JBDJ0550HFV> Temperature = %.02f[\xc2\xb0C]. Vsenout = %.02f[V]"
00:0008 35 30 48 46 56 3E 20 54   >>>   
00:0010 65 6D 70 65 72 61 74 75   >>>   
00:0018 72 65 20 3D 20 25 2E 30   >>>   
00:0020 32 66 5B C2 B0 43 5D 2E   >>>   
00:0028 20 56 73 65 6E 6F 75 74   >>>   
00:0030 20 3D 20 25 2E 30 32 66   >>>   
00:0038 5B 56 5D 00               >>>   , 00H
                                 8648   
  --------------------------     8649   	rseg $$TAB$$S286$main
00:0000                          8650   $$S286 :
00:0000 0A 0D 42 44 4A 30 35 35  8651   	DB	"\x0a\x0dBDJ0550HFV> Temperature Threshold Reached.\x1b[F"
00:0008 30 48 46 56 3E 20 54 65   >>>   
00:0010 6D 70 65 72 61 74 75 72   >>>   
00:0018 65 20 54 68 72 65 73 68   >>>   
00:0020 6F 6C 64 20 52 65 61 63   >>>   
00:0028 68 65 64 2E 1B 5B 46 00   >>>   , 00H
                                 8652   
  --------------------------     8653   	rseg $$TAB$$S288$main
00:0000                          8654   $$S288 :
00:0000 0A 0D 42 44 4A 30 35 35  8655   	DB	"\x0a\x0dBDJ0550HFV> Temperature Threshold Not Reached.\x1b[F"
00:0008 30 48 46 56 3E 20 54 65   >>>   
00:0010 6D 70 65 72 61 74 75 72   >>>   
00:0018 65 20 54 68 72 65 73 68   >>>   
00:0020 6F 6C 64 20 4E 6F 74 20   >>>   
00:0028 52 65 61 63 68 65 64 2E   >>>   
00:0030 1B 5B 46 00               >>>   , 00H
                                 8656   
  --------------------------     8657   	rseg $$NINITVAR
00:0000                          8658   _SensorIntializationFlag :
00:0000                          8659   	ds	01h
00:0001                          8660   _LEDFlashFlag :
00:0001                          8661   	ds	01h
00:0002                          8662   _LEDChangeFlag :
00:0002                          8663   	ds	01h
                                 8664   
  --------------------------     8665   	rseg $$NVARmain
00:0000                          8666   _SensorPlatformSelection :
00:0000                          8667   	ds	01h
                                 8668   
  --------------------------     8669   	rseg $$NINITTAB
??:0003 00                       8670   	align
                                 8671   
  --------------------------     8672   	rseg $$NINITVAR
00:0003                          8673   	align
                                 8674   	extrn code : __faddu8sw
                                 8675   	extrn code : __fsubu8sw
                                 8676   	extrn code : __fcmpu8sw
                                 8677   	extrn code : __fmulu8sw
                                 8678   	extrn code : __fdivu8sw
                                 8679   	extrn code : __fildu8sw
                                 8680   	extrn code : __ftolu8sw
                                 8681   	extrn code : __ftodu8sw
                                 8682   	extrn code : __dmulu8sw
                                 8683   	extrn code : __dildu8sw
                                 8684   	extrn code : __dtofu8sw
                                 8685   	extrn code : __fuldu8sw
                                 8686   
                                 8687   	end



  Target       : ML610112 (nX-U8/100)
  Memory Model : SMALL
  Data   Model : NEAR
  ROM WINDOW   : (not specified)
  Internal RAM : E000H to EFFFH

  Errors   : 0
  Warnings : 0  (/Wrpeast)
  Lines    : 8687
